---
triple:          'arm64-apple-darwin'
binary-path:     GHJ
relocations:
  - { offset: 0x305A, size: 0x8, addend: 0x0, symName: __ZNSt3__124__put_character_sequenceB8ne180100IcNS_11char_traitsIcEEEERNS_13basic_ostreamIT_T0_EES7_PKS4_m, symObjAddr: 0x1E18, symBinAddr: 0x100003764, symSize: 0x1EC }
  - { offset: 0x419A, size: 0x8, addend: 0x0, symName: __ZNSt3__1lsB8ne180100INS_11char_traitsIcEEEERNS_13basic_ostreamIcT_EES6_PKc, symObjAddr: 0x418, symBinAddr: 0x100001D64, symSize: 0x48 }
  - { offset: 0x41E0, size: 0x8, addend: 0x0, symName: __ZNSt3__14endlB8ne180100IcNS_11char_traitsIcEEEERNS_13basic_ostreamIT_T0_EES7_, symObjAddr: 0x48C, symBinAddr: 0x100001DD8, symSize: 0x58 }
  - { offset: 0x4220, size: 0x8, addend: 0x0, symName: __ZNSt3__1eqB8ne180100INS_9allocatorIcEEEEbRKNS_12basic_stringIcNS_11char_traitsIcEET_EES9_, symObjAddr: 0x4E4, symBinAddr: 0x100001E30, symSize: 0x148 }
  - { offset: 0x4293, size: 0x8, addend: 0x0, symName: __ZNSt3__1lsB8ne180100IcNS_11char_traitsIcEENS_9allocatorIcEEEERNS_13basic_ostreamIT_T0_EES9_RKNS_12basic_stringIS6_S7_T1_EE, symObjAddr: 0x690, symBinAddr: 0x100001FDC, symSize: 0x4C }
  - { offset: 0x42EB, size: 0x8, addend: 0x0, symName: __ZNSt3__1neB8ne180100IcNS_11char_traitsIcEENS_9allocatorIcEEEEbRKNS_12basic_stringIT_T0_T1_EESB_, symObjAddr: 0x75C, symBinAddr: 0x1000020A8, symSize: 0x34 }
  - { offset: 0x4343, size: 0x8, addend: 0x0, symName: __ZNSt3__1ltB8ne180100IcNS_11char_traitsIcEENS_9allocatorIcEEEEbRKNS_12basic_stringIT_T0_T1_EESB_, symObjAddr: 0x790, symBinAddr: 0x1000020DC, symSize: 0x38 }
  - { offset: 0x439B, size: 0x8, addend: 0x0, symName: __ZNSt3__119__libcpp_deallocateB8ne180100EPvmm, symObjAddr: 0xE38, symBinAddr: 0x100002784, symSize: 0x30 }
  - { offset: 0x43E3, size: 0x8, addend: 0x0, symName: __ZNSt3__127__do_deallocate_handle_sizeB8ne180100IJEEEvPvmDpT_, symObjAddr: 0xE68, symBinAddr: 0x1000027B4, symSize: 0x28 }
  - { offset: 0x4421, size: 0x8, addend: 0x0, symName: __ZNSt3__124__libcpp_operator_deleteB8ne180100IJPvEEEvDpT_, symObjAddr: 0xE90, symBinAddr: 0x1000027DC, symSize: 0x24 }
  - { offset: 0x4489, size: 0x8, addend: 0x0, symName: __ZNSt3__116__do_string_hashB8ne180100IPKcEEmT_S3_, symObjAddr: 0xF74, symBinAddr: 0x1000028C0, symSize: 0x3C }
  - { offset: 0x44CF, size: 0x8, addend: 0x0, symName: __ZNSt3__110__loadwordB8ne180100ImEET_PKv, symObjAddr: 0x1998, symBinAddr: 0x1000032E4, symSize: 0x20 }
  - { offset: 0x4512, size: 0x8, addend: 0x0, symName: __ZNSt3__14swapB8ne180100ImEENS_9enable_ifIXaasr21is_move_constructibleIT_EE5valuesr18is_move_assignableIS2_EE5valueEvE4typeERS2_S5_, symObjAddr: 0x1B54, symBinAddr: 0x1000034A0, symSize: 0x3C }
  - { offset: 0x4563, size: 0x8, addend: 0x0, symName: __ZNSt3__110__loadwordB8ne180100IjEET_PKv, symObjAddr: 0x1BE4, symBinAddr: 0x100003530, symSize: 0x20 }
  - { offset: 0x45A6, size: 0x8, addend: 0x0, symName: __ZNSt3__112__to_addressB8ne180100IKcEEPT_S3_, symObjAddr: 0x1D4C, symBinAddr: 0x100003698, symSize: 0x14 }
  - { offset: 0x460E, size: 0x8, addend: 0x0, symName: __ZNSt3__116__pad_and_outputB8ne180100IcNS_11char_traitsIcEEEENS_19ostreambuf_iteratorIT_T0_EES6_PKS4_S8_S8_RNS_8ios_baseES4_, symObjAddr: 0x2054, symBinAddr: 0x1000039A0, symSize: 0x240 }
  - { offset: 0x46DD, size: 0x8, addend: 0x0, symName: __ZNSt3__19use_facetB8ne180100INS_5ctypeIcEEEERKT_RKNS_6localeE, symObjAddr: 0x266C, symBinAddr: 0x100003FB8, symSize: 0x2C }
  - { offset: 0x4BAA, size: 0x8, addend: 0x0, symName: __ZNSt3__118__constexpr_strlenB8ne180100EPKc, symObjAddr: 0x2704, symBinAddr: 0x100004050, symSize: 0x24 }
  - { offset: 0x4BD6, size: 0x8, addend: 0x0, symName: __ZNSt3__13minB8ne180100ImEERKT_S3_S3_, symObjAddr: 0x2954, symBinAddr: 0x1000042A0, symSize: 0x2C }
  - { offset: 0x4C19, size: 0x8, addend: 0x0, symName: __ZNSt3__13minB8ne180100ImNS_6__lessIvvEEEERKT_S5_S5_T0_, symObjAddr: 0x2980, symBinAddr: 0x1000042CC, symSize: 0x54 }
  - { offset: 0x5DC5, size: 0x8, addend: 0x0, symName: __ZN6RecordC2ENSt3__112basic_stringIcNS0_11char_traitsIcEENS0_9allocatorIcEEEES6_, symObjAddr: 0x0, symBinAddr: 0x10000194C, symSize: 0x64 }
  - { offset: 0x5E0D, size: 0x8, addend: 0x0, symName: __ZNSt3__112basic_stringIcNS_11char_traitsIcEENS_9allocatorIcEEEC1B8ne180100Ev, symObjAddr: 0x64, symBinAddr: 0x1000019B0, symSize: 0x2C }
  - { offset: 0x5E35, size: 0x8, addend: 0x0, symName: __ZNSt3__112basic_stringIcNS_11char_traitsIcEENS_9allocatorIcEEEaSB8ne180100EOS5_, symObjAddr: 0x90, symBinAddr: 0x1000019DC, symSize: 0x34 }
  - { offset: 0x5E68, size: 0x8, addend: 0x0, symName: __ZN6RecordC1ENSt3__112basic_stringIcNS0_11char_traitsIcEENS0_9allocatorIcEEEES6_, symObjAddr: 0xC4, symBinAddr: 0x100001A10, symSize: 0x3C }
  - { offset: 0x5EB0, size: 0x8, addend: 0x0, symName: __ZN6RecordC2ERKS_, symObjAddr: 0x100, symBinAddr: 0x100001A4C, symSize: 0x90 }
  - { offset: 0x5EE8, size: 0x8, addend: 0x0, symName: __ZN6RecordC1ERKS_, symObjAddr: 0x190, symBinAddr: 0x100001ADC, symSize: 0x34 }
  - { offset: 0x5F20, size: 0x8, addend: 0x0, symName: __ZN6Record14partition_hashEv, symObjAddr: 0x1C4, symBinAddr: 0x100001B10, symSize: 0x40 }
  - { offset: 0x5F62, size: 0x8, addend: 0x0, symName: __ZNKSt3__113__string_hashIcNS_9allocatorIcEEEclB8ne180100ERKNS_12basic_stringIcNS_11char_traitsIcEES2_EE, symObjAddr: 0x204, symBinAddr: 0x100001B50, symSize: 0x64 }
  - { offset: 0x5F95, size: 0x8, addend: 0x0, symName: __ZN6Record10probe_hashEv, symObjAddr: 0x268, symBinAddr: 0x100001BB4, symSize: 0x68 }
  - { offset: 0x5FCD, size: 0x8, addend: 0x0, symName: __ZNK6RecordeqERKS_, symObjAddr: 0x2D0, symBinAddr: 0x100001C1C, symSize: 0x148 }
  - { offset: 0x600F, size: 0x8, addend: 0x0, symName: __ZNSt3__113basic_ostreamIcNS_11char_traitsIcEEElsB8ne180100EPFRS3_S4_E, symObjAddr: 0x460, symBinAddr: 0x100001DAC, symSize: 0x2C }
  - { offset: 0x6041, size: 0x8, addend: 0x0, symName: __ZN6Record5printEv, symObjAddr: 0x62C, symBinAddr: 0x100001F78, symSize: 0x64 }
  - { offset: 0x6067, size: 0x8, addend: 0x0, symName: __ZNK6RecordltERKS_, symObjAddr: 0x6DC, symBinAddr: 0x100002028, symSize: 0x80 }
  - { offset: 0x609B, size: 0x8, addend: 0x0, symName: __ZN6Record5equalERKS_, symObjAddr: 0x7C8, symBinAddr: 0x100002114, symSize: 0x64 }
  - { offset: 0x60CF, size: 0x8, addend: 0x0, symName: __ZNSt3__112basic_stringIcNS_11char_traitsIcEENS_9allocatorIcEEEC2B8ne180100Ev, symObjAddr: 0x82C, symBinAddr: 0x100002178, symSize: 0x48 }
  - { offset: 0x6101, size: 0x8, addend: 0x0, symName: __ZNSt3__117__compressed_pairINS_12basic_stringIcNS_11char_traitsIcEENS_9allocatorIcEEE5__repES5_EC1B8ne180100INS_16__value_init_tagENS_18__default_init_tagEEEOT_OT0_, symObjAddr: 0x874, symBinAddr: 0x1000021C0, symSize: 0x3C }
  - { offset: 0x6157, size: 0x8, addend: 0x0, symName: __ZNKSt3__112basic_stringIcNS_11char_traitsIcEENS_9allocatorIcEEE14__annotate_newB8ne180100Em, symObjAddr: 0x8C0, symBinAddr: 0x10000220C, symSize: 0x14 }
  - { offset: 0x618A, size: 0x8, addend: 0x0, symName: __ZNSt3__117__compressed_pairINS_12basic_stringIcNS_11char_traitsIcEENS_9allocatorIcEEE5__repES5_EC2B8ne180100INS_16__value_init_tagENS_18__default_init_tagEEEOT_OT0_, symObjAddr: 0x8D4, symBinAddr: 0x100002220, symSize: 0x3C }
  - { offset: 0x61E0, size: 0x8, addend: 0x0, symName: __ZNSt3__122__compressed_pair_elemINS_12basic_stringIcNS_11char_traitsIcEENS_9allocatorIcEEE5__repELi0ELb0EEC2B8ne180100ENS_16__value_init_tagE, symObjAddr: 0x910, symBinAddr: 0x10000225C, symSize: 0x20 }
  - { offset: 0x6212, size: 0x8, addend: 0x0, symName: __ZNSt3__122__compressed_pair_elemINS_9allocatorIcEELi1ELb1EEC2B8ne180100ENS_18__default_init_tagE, symObjAddr: 0x930, symBinAddr: 0x10000227C, symSize: 0x2C }
  - { offset: 0x6244, size: 0x8, addend: 0x0, symName: __ZNSt3__19allocatorIcEC2B8ne180100Ev, symObjAddr: 0x95C, symBinAddr: 0x1000022A8, symSize: 0x2C }
  - { offset: 0x626C, size: 0x8, addend: 0x0, symName: __ZNSt3__116__non_trivial_ifILb1ENS_9allocatorIcEEEC2B8ne180100Ev, symObjAddr: 0x988, symBinAddr: 0x1000022D4, symSize: 0x14 }
  - { offset: 0x6294, size: 0x8, addend: 0x0, symName: __ZNSt3__112basic_stringIcNS_11char_traitsIcEENS_9allocatorIcEEE13__move_assignB8ne180100ERS5_NS_17integral_constantIbLb1EEE, symObjAddr: 0x99C, symBinAddr: 0x1000022E8, symSize: 0x17C }
  - { offset: 0x62F2, size: 0x8, addend: 0x0, symName: __ZNKSt3__112basic_stringIcNS_11char_traitsIcEENS_9allocatorIcEEE17__annotate_deleteB8ne180100Ev, symObjAddr: 0xB18, symBinAddr: 0x100002464, symSize: 0x10 }
  - { offset: 0x6316, size: 0x8, addend: 0x0, symName: __ZNKSt3__112basic_stringIcNS_11char_traitsIcEENS_9allocatorIcEEE9__is_longB8ne180100Ev, symObjAddr: 0xB28, symBinAddr: 0x100002474, symSize: 0x38 }
  - { offset: 0x633A, size: 0x8, addend: 0x0, symName: __ZNSt3__116allocator_traitsINS_9allocatorIcEEE10deallocateB8ne180100ERS2_Pcm, symObjAddr: 0xB60, symBinAddr: 0x1000024AC, symSize: 0x34 }
  - { offset: 0x637B, size: 0x8, addend: 0x0, symName: __ZNSt3__112basic_stringIcNS_11char_traitsIcEENS_9allocatorIcEEE7__allocB8ne180100Ev, symObjAddr: 0xB94, symBinAddr: 0x1000024E0, symSize: 0x24 }
  - { offset: 0x639F, size: 0x8, addend: 0x0, symName: __ZNSt3__112basic_stringIcNS_11char_traitsIcEENS_9allocatorIcEEE18__get_long_pointerB8ne180100Ev, symObjAddr: 0xBB8, symBinAddr: 0x100002504, symSize: 0x28 }
  - { offset: 0x63C3, size: 0x8, addend: 0x0, symName: __ZNKSt3__112basic_stringIcNS_11char_traitsIcEENS_9allocatorIcEEE14__get_long_capB8ne180100Ev, symObjAddr: 0xBE0, symBinAddr: 0x10000252C, symSize: 0x30 }
  - { offset: 0x63E7, size: 0x8, addend: 0x0, symName: __ZNKSt3__112basic_stringIcNS_11char_traitsIcEENS_9allocatorIcEEE4sizeB8ne180100Ev, symObjAddr: 0xC10, symBinAddr: 0x10000255C, symSize: 0x54 }
  - { offset: 0x640B, size: 0x8, addend: 0x0, symName: __ZNSt3__112basic_stringIcNS_11char_traitsIcEENS_9allocatorIcEEE19__move_assign_allocB8ne180100ERS5_, symObjAddr: 0xC64, symBinAddr: 0x1000025B0, symSize: 0x2C }
  - { offset: 0x643E, size: 0x8, addend: 0x0, symName: __ZNSt3__117__compressed_pairINS_12basic_stringIcNS_11char_traitsIcEENS_9allocatorIcEEE5__repES5_E5firstB8ne180100Ev, symObjAddr: 0xC90, symBinAddr: 0x1000025DC, symSize: 0x24 }
  - { offset: 0x6462, size: 0x8, addend: 0x0, symName: __ZNSt3__112basic_stringIcNS_11char_traitsIcEENS_9allocatorIcEEE16__set_short_sizeB8ne180100Em, symObjAddr: 0xCB4, symBinAddr: 0x100002600, symSize: 0x78 }
  - { offset: 0x6495, size: 0x8, addend: 0x0, symName: __ZNSt3__111char_traitsIcE6assignB8ne180100ERcRKc, symObjAddr: 0xD2C, symBinAddr: 0x100002678, symSize: 0x24 }
  - { offset: 0x64C5, size: 0x8, addend: 0x0, symName: __ZNSt3__112basic_stringIcNS_11char_traitsIcEENS_9allocatorIcEEE19__get_short_pointerB8ne180100Ev, symObjAddr: 0xD50, symBinAddr: 0x10000269C, symSize: 0x28 }
  - { offset: 0x64E9, size: 0x8, addend: 0x0, symName: __ZNKSt3__112basic_stringIcNS_11char_traitsIcEENS_9allocatorIcEEE17__annotate_shrinkB8ne180100Em, symObjAddr: 0xD78, symBinAddr: 0x1000026C4, symSize: 0x14 }
  - { offset: 0x651C, size: 0x8, addend: 0x0, symName: __ZNKSt3__112basic_stringIcNS_11char_traitsIcEENS_9allocatorIcEEE16__get_short_sizeB8ne180100Ev, symObjAddr: 0xD8C, symBinAddr: 0x1000026D8, symSize: 0x34 }
  - { offset: 0x6540, size: 0x8, addend: 0x0, symName: __ZNKSt3__117__compressed_pairINS_12basic_stringIcNS_11char_traitsIcEENS_9allocatorIcEEE5__repES5_E5firstB8ne180100Ev, symObjAddr: 0xDC0, symBinAddr: 0x10000270C, symSize: 0x24 }
  - { offset: 0x6564, size: 0x8, addend: 0x0, symName: __ZNKSt3__122__compressed_pair_elemINS_12basic_stringIcNS_11char_traitsIcEENS_9allocatorIcEEE5__repELi0ELb0EE5__getB8ne180100Ev, symObjAddr: 0xDE4, symBinAddr: 0x100002730, symSize: 0x14 }
  - { offset: 0x6588, size: 0x8, addend: 0x0, symName: __ZNSt3__19allocatorIcE10deallocateB8ne180100EPcm, symObjAddr: 0xDF8, symBinAddr: 0x100002744, symSize: 0x40 }
  - { offset: 0x65C8, size: 0x8, addend: 0x0, symName: __ZNSt3__117__compressed_pairINS_12basic_stringIcNS_11char_traitsIcEENS_9allocatorIcEEE5__repES5_E6secondB8ne180100Ev, symObjAddr: 0xEB4, symBinAddr: 0x100002800, symSize: 0x24 }
  - { offset: 0x65EC, size: 0x8, addend: 0x0, symName: __ZNSt3__122__compressed_pair_elemINS_9allocatorIcEELi1ELb1EE5__getB8ne180100Ev, symObjAddr: 0xED8, symBinAddr: 0x100002824, symSize: 0x14 }
  - { offset: 0x6610, size: 0x8, addend: 0x0, symName: __ZNKSt3__112basic_stringIcNS_11char_traitsIcEENS_9allocatorIcEEE15__get_long_sizeB8ne180100Ev, symObjAddr: 0xEEC, symBinAddr: 0x100002838, symSize: 0x28 }
  - { offset: 0x6634, size: 0x8, addend: 0x0, symName: __ZNSt3__112basic_stringIcNS_11char_traitsIcEENS_9allocatorIcEEE19__move_assign_allocB8ne180100ERS5_NS_17integral_constantIbLb1EEE, symObjAddr: 0xF14, symBinAddr: 0x100002860, symSize: 0x38 }
  - { offset: 0x6672, size: 0x8, addend: 0x0, symName: __ZNSt3__122__compressed_pair_elemINS_12basic_stringIcNS_11char_traitsIcEENS_9allocatorIcEEE5__repELi0ELb0EE5__getB8ne180100Ev, symObjAddr: 0xF4C, symBinAddr: 0x100002898, symSize: 0x14 }
  - { offset: 0x6696, size: 0x8, addend: 0x0, symName: __ZNSt3__114pointer_traitsIPcE10pointer_toB8ne180100ERc, symObjAddr: 0xF60, symBinAddr: 0x1000028AC, symSize: 0x14 }
  - { offset: 0x66B8, size: 0x8, addend: 0x0, symName: __ZNKSt3__112basic_stringIcNS_11char_traitsIcEENS_9allocatorIcEEE4dataB8ne180100Ev, symObjAddr: 0xFB0, symBinAddr: 0x1000028FC, symSize: 0x28 }
  - { offset: 0x66DC, size: 0x8, addend: 0x0, symName: __ZNKSt3__121__murmur2_or_cityhashImLm64EEclB8ne180100EPKvm, symObjAddr: 0xFD8, symBinAddr: 0x100002924, symSize: 0x410 }
  - { offset: 0x6774, size: 0x8, addend: 0x0, symName: __ZNSt3__121__murmur2_or_cityhashImLm64EE18__hash_len_0_to_16B8ne180100EPKcm, symObjAddr: 0x13E8, symBinAddr: 0x100002D34, symSize: 0x1C8 }
  - { offset: 0x684C, size: 0x8, addend: 0x0, symName: __ZNSt3__121__murmur2_or_cityhashImLm64EE19__hash_len_17_to_32B8ne180100EPKcm, symObjAddr: 0x15B0, symBinAddr: 0x100002EFC, symSize: 0x130 }
  - { offset: 0x68B4, size: 0x8, addend: 0x0, symName: __ZNSt3__121__murmur2_or_cityhashImLm64EE19__hash_len_33_to_64B8ne180100EPKcm, symObjAddr: 0x16E0, symBinAddr: 0x10000302C, symSize: 0x2B8 }
  - { offset: 0x6965, size: 0x8, addend: 0x0, symName: __ZNSt3__121__murmur2_or_cityhashImLm64EE13__hash_len_16B8ne180100Emm, symObjAddr: 0x19B8, symBinAddr: 0x100003304, symSize: 0x80 }
  - { offset: 0x69BF, size: 0x8, addend: 0x0, symName: __ZNSt3__121__murmur2_or_cityhashImLm64EE29__weak_hash_len_32_with_seedsB8ne180100EPKcmm, symObjAddr: 0x1A38, symBinAddr: 0x100003384, symSize: 0x88 }
  - { offset: 0x69FD, size: 0x8, addend: 0x0, symName: __ZNSt3__121__murmur2_or_cityhashImLm64EE8__rotateB8ne180100Emi, symObjAddr: 0x1AC0, symBinAddr: 0x10000340C, symSize: 0x64 }
  - { offset: 0x6A2D, size: 0x8, addend: 0x0, symName: __ZNSt3__14pairImmEaSB8ne180100EOS1_, symObjAddr: 0x1B24, symBinAddr: 0x100003470, symSize: 0x30 }
  - { offset: 0x6A60, size: 0x8, addend: 0x0, symName: __ZNSt3__121__murmur2_or_cityhashImLm64EE11__shift_mixB8ne180100Em, symObjAddr: 0x1B90, symBinAddr: 0x1000034DC, symSize: 0x1C }
  - { offset: 0x6A82, size: 0x8, addend: 0x0, symName: __ZNSt3__121__murmur2_or_cityhashImLm64EE22__rotate_by_at_least_1B8ne180100Emi, symObjAddr: 0x1BAC, symBinAddr: 0x1000034F8, symSize: 0x38 }
  - { offset: 0x6AB2, size: 0x8, addend: 0x0, symName: __ZNSt3__121__murmur2_or_cityhashImLm64EE29__weak_hash_len_32_with_seedsB8ne180100Emmmmmm, symObjAddr: 0x1C04, symBinAddr: 0x100003550, symSize: 0xD8 }
  - { offset: 0x6B2D, size: 0x8, addend: 0x0, symName: __ZNSt3__14pairImmEC1B8ne180100ImmLi0EEEOT_OT0_, symObjAddr: 0x1CDC, symBinAddr: 0x100003628, symSize: 0x3C }
  - { offset: 0x6B89, size: 0x8, addend: 0x0, symName: __ZNSt3__14pairImmEC2B8ne180100ImmLi0EEEOT_OT0_, symObjAddr: 0x1D18, symBinAddr: 0x100003664, symSize: 0x34 }
  - { offset: 0x6BE5, size: 0x8, addend: 0x0, symName: __ZNKSt3__112basic_stringIcNS_11char_traitsIcEENS_9allocatorIcEEE13__get_pointerB8ne180100Ev, symObjAddr: 0x1D60, symBinAddr: 0x1000036AC, symSize: 0x54 }
  - { offset: 0x6C09, size: 0x8, addend: 0x0, symName: __ZNKSt3__112basic_stringIcNS_11char_traitsIcEENS_9allocatorIcEEE18__get_long_pointerB8ne180100Ev, symObjAddr: 0x1DB4, symBinAddr: 0x100003700, symSize: 0x28 }
  - { offset: 0x6C2D, size: 0x8, addend: 0x0, symName: __ZNKSt3__112basic_stringIcNS_11char_traitsIcEENS_9allocatorIcEEE19__get_short_pointerB8ne180100Ev, symObjAddr: 0x1DDC, symBinAddr: 0x100003728, symSize: 0x28 }
  - { offset: 0x6C51, size: 0x8, addend: 0x0, symName: __ZNSt3__114pointer_traitsIPKcE10pointer_toB8ne180100ERS1_, symObjAddr: 0x1E04, symBinAddr: 0x100003750, symSize: 0x14 }
  - { offset: 0x6C73, size: 0x8, addend: 0x0, symName: __ZNSt3__111char_traitsIcE6lengthB8ne180100EPKc, symObjAddr: 0x2004, symBinAddr: 0x100003950, symSize: 0x34 }
  - { offset: 0x6CB3, size: 0x8, addend: 0x0, symName: __ZNKSt3__113basic_ostreamIcNS_11char_traitsIcEEE6sentrycvbB8ne180100Ev, symObjAddr: 0x2038, symBinAddr: 0x100003984, symSize: 0x1C }
  - { offset: 0x6CD7, size: 0x8, addend: 0x0, symName: __ZNSt3__119ostreambuf_iteratorIcNS_11char_traitsIcEEEC1B8ne180100ERNS_13basic_ostreamIcS2_EE, symObjAddr: 0x2294, symBinAddr: 0x100003BE0, symSize: 0x34 }
  - { offset: 0x6D0D, size: 0x8, addend: 0x0, symName: __ZNKSt3__18ios_base5flagsB8ne180100Ev, symObjAddr: 0x22C8, symBinAddr: 0x100003C14, symSize: 0x18 }
  - { offset: 0x6D33, size: 0x8, addend: 0x0, symName: __ZNKSt3__19basic_iosIcNS_11char_traitsIcEEE4fillB8ne180100Ev, symObjAddr: 0x22E0, symBinAddr: 0x100003C2C, symSize: 0x64 }
  - { offset: 0x6D59, size: 0x8, addend: 0x0, symName: __ZNKSt3__119ostreambuf_iteratorIcNS_11char_traitsIcEEE6failedB8ne180100Ev, symObjAddr: 0x2344, symBinAddr: 0x100003C90, symSize: 0x24 }
  - { offset: 0x6D7D, size: 0x8, addend: 0x0, symName: __ZNSt3__19basic_iosIcNS_11char_traitsIcEEE8setstateB8ne180100Ej, symObjAddr: 0x2368, symBinAddr: 0x100003CB4, symSize: 0x2C }
  - { offset: 0x6DB0, size: 0x8, addend: 0x0, symName: __ZNKSt3__18ios_base5widthB8ne180100Ev, symObjAddr: 0x2394, symBinAddr: 0x100003CE0, symSize: 0x18 }
  - { offset: 0x6DD6, size: 0x8, addend: 0x0, symName: __ZNSt3__115basic_streambufIcNS_11char_traitsIcEEE5sputnB8ne180100EPKcl, symObjAddr: 0x23AC, symBinAddr: 0x100003CF8, symSize: 0x3C }
  - { offset: 0x6E16, size: 0x8, addend: 0x0, symName: __ZNSt3__112basic_stringIcNS_11char_traitsIcEENS_9allocatorIcEEEC1B8ne180100Emc, symObjAddr: 0x23E8, symBinAddr: 0x100003D34, symSize: 0x3C }
  - { offset: 0x6E5C, size: 0x8, addend: 0x0, symName: __ZNSt3__18ios_base5widthB8ne180100El, symObjAddr: 0x2424, symBinAddr: 0x100003D70, symSize: 0x2C }
  - { offset: 0x6EA0, size: 0x8, addend: 0x0, symName: __ZNSt3__112basic_stringIcNS_11char_traitsIcEENS_9allocatorIcEEEC2B8ne180100Emc, symObjAddr: 0x2450, symBinAddr: 0x100003D9C, symSize: 0x4C }
  - { offset: 0x6EE6, size: 0x8, addend: 0x0, symName: __ZNSt3__117__compressed_pairINS_12basic_stringIcNS_11char_traitsIcEENS_9allocatorIcEEE5__repES5_EC1B8ne180100INS_18__default_init_tagESA_EEOT_OT0_, symObjAddr: 0x249C, symBinAddr: 0x100003DE8, symSize: 0x3C }
  - { offset: 0x6F3C, size: 0x8, addend: 0x0, symName: __ZNSt3__117__compressed_pairINS_12basic_stringIcNS_11char_traitsIcEENS_9allocatorIcEEE5__repES5_EC2B8ne180100INS_18__default_init_tagESA_EEOT_OT0_, symObjAddr: 0x24D8, symBinAddr: 0x100003E24, symSize: 0x3C }
  - { offset: 0x6F92, size: 0x8, addend: 0x0, symName: __ZNSt3__122__compressed_pair_elemINS_12basic_stringIcNS_11char_traitsIcEENS_9allocatorIcEEE5__repELi0ELb0EEC2B8ne180100ENS_18__default_init_tagE, symObjAddr: 0x2514, symBinAddr: 0x100003E60, symSize: 0x14 }
  - { offset: 0x6FC4, size: 0x8, addend: 0x0, symName: __ZNSt3__119ostreambuf_iteratorIcNS_11char_traitsIcEEEC2B8ne180100ERNS_13basic_ostreamIcS2_EE, symObjAddr: 0x2528, symBinAddr: 0x100003E74, symSize: 0x54 }
  - { offset: 0x6FFA, size: 0x8, addend: 0x0, symName: __ZNKSt3__19basic_iosIcNS_11char_traitsIcEEE5rdbufB8ne180100Ev, symObjAddr: 0x257C, symBinAddr: 0x100003EC8, symSize: 0x24 }
  - { offset: 0x7020, size: 0x8, addend: 0x0, symName: __ZNKSt3__18ios_base5rdbufB8ne180100Ev, symObjAddr: 0x25A0, symBinAddr: 0x100003EEC, symSize: 0x18 }
  - { offset: 0x7044, size: 0x8, addend: 0x0, symName: __ZNSt3__111char_traitsIcE11eq_int_typeB8ne180100Eii, symObjAddr: 0x25B8, symBinAddr: 0x100003F04, symSize: 0x28 }
  - { offset: 0x7076, size: 0x8, addend: 0x0, symName: __ZNSt3__111char_traitsIcE3eofB8ne180100Ev, symObjAddr: 0x25E0, symBinAddr: 0x100003F2C, symSize: 0x8 }
  - { offset: 0x7089, size: 0x8, addend: 0x0, symName: __ZNKSt3__19basic_iosIcNS_11char_traitsIcEEE5widenB8ne180100Ec, symObjAddr: 0x25E8, symBinAddr: 0x100003F34, symSize: 0x84 }
  - { offset: 0x7100, size: 0x8, addend: 0x0, symName: __ZNKSt3__15ctypeIcE5widenB8ne180100Ec, symObjAddr: 0x2698, symBinAddr: 0x100003FE4, symSize: 0x38 }
  - { offset: 0x7133, size: 0x8, addend: 0x0, symName: __ZNSt3__18ios_base8setstateB8ne180100Ej, symObjAddr: 0x26D0, symBinAddr: 0x10000401C, symSize: 0x34 }
  - { offset: 0x7168, size: 0x8, addend: 0x0, symName: __ZNSt3__111char_traitsIcE7compareB8ne180100EPKcS3_m, symObjAddr: 0x2728, symBinAddr: 0x100004074, symSize: 0x34 }
  - { offset: 0x71A6, size: 0x8, addend: 0x0, symName: __ZNKSt3__112basic_stringIcNS_11char_traitsIcEENS_9allocatorIcEEE7compareB8ne180100ERKS5_, symObjAddr: 0x275C, symBinAddr: 0x1000040A8, symSize: 0x4C }
  - { offset: 0x71DB, size: 0x8, addend: 0x0, symName: __ZNKSt3__112basic_stringIcNS_11char_traitsIcEENS_9allocatorIcEEE7compareINS_17basic_string_viewIcS2_EELi0EEEiRKT_, symObjAddr: 0x27A8, symBinAddr: 0x1000040F4, symSize: 0x12C }
  - { offset: 0x725C, size: 0x8, addend: 0x0, symName: __ZNKSt3__112basic_stringIcNS_11char_traitsIcEENS_9allocatorIcEEEcvNS_17basic_string_viewIcS2_EEB8ne180100Ev, symObjAddr: 0x28D4, symBinAddr: 0x100004220, symSize: 0x50 }
  - { offset: 0x7280, size: 0x8, addend: 0x0, symName: __ZNKSt3__117basic_string_viewIcNS_11char_traitsIcEEE4sizeB8ne180100Ev, symObjAddr: 0x2924, symBinAddr: 0x100004270, symSize: 0x18 }
  - { offset: 0x72A4, size: 0x8, addend: 0x0, symName: __ZNKSt3__117basic_string_viewIcNS_11char_traitsIcEEE4dataB8ne180100Ev, symObjAddr: 0x293C, symBinAddr: 0x100004288, symSize: 0x18 }
  - { offset: 0x72D7, size: 0x8, addend: 0x0, symName: __ZNKSt3__16__lessIvvEclB8ne180100ImmEEbRKT_RKT0_, symObjAddr: 0x29D4, symBinAddr: 0x100004320, symSize: 0x34 }
  - { offset: 0x7329, size: 0x8, addend: 0x0, symName: __ZNSt3__117basic_string_viewIcNS_11char_traitsIcEEEC1B8ne180100EPKcm, symObjAddr: 0x2A08, symBinAddr: 0x100004354, symSize: 0x3C }
  - { offset: 0x736F, size: 0x8, addend: 0x0, symName: __ZNSt3__117basic_string_viewIcNS_11char_traitsIcEEEC2B8ne180100EPKcm, symObjAddr: 0x2A44, symBinAddr: 0x100004390, symSize: 0x2C }
  - { offset: 0xD93F, size: 0x8, addend: 0x0, symName: __ZNSt3__1neB8ne180100IPK6RecordEEbRKNS_11__wrap_iterIT_EES8_, symObjAddr: 0x6BC, symBinAddr: 0x1000049AC, symSize: 0x34 }
  - { offset: 0xD982, size: 0x8, addend: 0x0, symName: __ZNSt3__1neB8ne180100IP6RecordEEbRKNS_11__wrap_iterIT_EES7_, symObjAddr: 0x800, symBinAddr: 0x100004AF0, symSize: 0x34 }
  - { offset: 0xD9C5, size: 0x8, addend: 0x0, symName: __ZNSt3__1eqB8ne180100IPK6RecordEEbRKNS_11__wrap_iterIT_EES8_, symObjAddr: 0x86C, symBinAddr: 0x100004B5C, symSize: 0x48 }
  - { offset: 0xDA08, size: 0x8, addend: 0x0, symName: __ZNSt3__1eqB8ne180100IP6RecordEEbRKNS_11__wrap_iterIT_EES7_, symObjAddr: 0x8CC, symBinAddr: 0x100004BBC, symSize: 0x48 }
  - { offset: 0xDA4B, size: 0x8, addend: 0x0, symName: __ZNSt3__112__to_addressB8ne180100I6RecordEEPT_S3_, symObjAddr: 0xD40, symBinAddr: 0x100005020, symSize: 0x14 }
  - { offset: 0xDA80, size: 0x8, addend: 0x0, symName: __ZNSt3__13maxB8ne180100ImEERKT_S3_S3_, symObjAddr: 0x150C, symBinAddr: 0x100005770, symSize: 0x2C }
  - { offset: 0xDCCF, size: 0x8, addend: 0x0, symName: __ZNSt3__120__throw_length_errorB8ne180100EPKc, symObjAddr: 0x16A4, symBinAddr: 0x100005854, symSize: 0x64 }
  - { offset: 0xDCF7, size: 0x8, addend: 0x0, symName: __ZNSt3__13maxB8ne180100ImNS_6__lessIvvEEEERKT_S5_S5_T0_, symObjAddr: 0x1780, symBinAddr: 0x100005930, symSize: 0x54 }
  - { offset: 0xDD51, size: 0x8, addend: 0x0, symName: __ZNSt3__119__allocate_at_leastB8ne180100INS_9allocatorI6RecordEEEENS_19__allocation_resultINS_16allocator_traitsIT_E7pointerEEERS6_m, symObjAddr: 0x18F0, symBinAddr: 0x100005AA0, symSize: 0x40 }
  - { offset: 0xDD94, size: 0x8, addend: 0x0, symName: __ZNSt3__117__libcpp_allocateB8ne180100Emm, symObjAddr: 0x1A78, symBinAddr: 0x100005C28, symSize: 0x28 }
  - { offset: 0xDDD1, size: 0x8, addend: 0x0, symName: __ZNSt3__121__libcpp_operator_newB8ne180100IJmEEEPvDpT_, symObjAddr: 0x1AA0, symBinAddr: 0x100005C50, symSize: 0x24 }
  - { offset: 0xDE0A, size: 0x8, addend: 0x0, symName: __ZNSt3__142__uninitialized_allocator_move_if_noexceptB8ne180100INS_9allocatorI6RecordEENS_16reverse_iteratorIPS2_EES6_S6_EET2_RT_T0_T1_S7_, symObjAddr: 0x1B28, symBinAddr: 0x100005CD8, symSize: 0x12C }
  - { offset: 0xDEAA, size: 0x8, addend: 0x0, symName: __ZNSt3__14swapB8ne180100IP6RecordEENS_9enable_ifIXaasr21is_move_constructibleIT_EE5valuesr18is_move_assignableIS4_EE5valueEvE4typeERS4_S7_, symObjAddr: 0x1CA0, symBinAddr: 0x100005E50, symSize: 0x3C }
  - { offset: 0xDEFB, size: 0x8, addend: 0x0, symName: __ZNSt3__122__make_exception_guardB8ne180100INS_29_AllocatorDestroyRangeReverseINS_9allocatorI6RecordEENS_16reverse_iteratorIPS3_EEEEEENS_28__exception_guard_exceptionsIT_EESA_, symObjAddr: 0x1CF0, symBinAddr: 0x100005EA0, symSize: 0x4C }
  - { offset: 0xDF31, size: 0x8, addend: 0x0, symName: __ZNSt3__1neB8ne180100IP6RecordS2_EEbRKNS_16reverse_iteratorIT_EERKNS3_IT0_EE, symObjAddr: 0x1D80, symBinAddr: 0x100005F30, symSize: 0x48 }
  - { offset: 0xDF7D, size: 0x8, addend: 0x0, symName: __ZNSt3__112__to_addressB8ne180100INS_16reverse_iteratorIP6RecordEEvEEu7__decayIDTclsr19__to_address_helperIT_EE6__callclsr3stdE7declvalIRKS5_EEEEES7_, symObjAddr: 0x1DC8, symBinAddr: 0x100005F78, symSize: 0x24 }
  - { offset: 0xDFDE, size: 0x8, addend: 0x0, symName: __ZNSt3__119__allocator_destroyB8ne180100INS_9allocatorI6RecordEENS_16reverse_iteratorINS4_IPS2_EEEES7_EEvRT_T0_T1_, symObjAddr: 0x2078, symBinAddr: 0x100006228, symSize: 0x70 }
  - { offset: 0xE043, size: 0x8, addend: 0x0, symName: __ZNSt3__1neB8ne180100INS_16reverse_iteratorIP6RecordEES4_EEbRKNS1_IT_EERKNS1_IT0_EE, symObjAddr: 0x2124, symBinAddr: 0x1000062D4, symSize: 0x60 }
  - { offset: 0xE08F, size: 0x8, addend: 0x0, symName: __ZNSt3__112__to_addressB8ne180100INS_16reverse_iteratorINS1_IP6RecordEEEEvEEu7__decayIDTclsr19__to_address_helperIT_EE6__callclsr3stdE7declvalIRKS6_EEEEES8_, symObjAddr: 0x2184, symBinAddr: 0x100006334, symSize: 0x24 }
  - { offset: 0xEE34, size: 0x8, addend: 0x0, symName: __ZSt28__throw_bad_array_new_lengthB8ne180100v, symObjAddr: 0x1A44, symBinAddr: 0x100005BF4, symSize: 0x34 }
  - { offset: 0xF254, size: 0x8, addend: 0x0, symName: __ZNSt3__16vectorI6RecordNS_9allocatorIS1_EEE26__swap_out_circular_bufferERNS_14__split_bufferIS1_RS3_EE, symObjAddr: 0x1354, symBinAddr: 0x1000055B8, symSize: 0x110 }
  - { offset: 0xF440, size: 0x8, addend: 0x0, symName: __ZN4PageC2Ev, symObjAddr: 0x0, symBinAddr: 0x1000043BC, symSize: 0x2C }
  - { offset: 0xF46A, size: 0x8, addend: 0x0, symName: __ZNSt3__16vectorI6RecordNS_9allocatorIS1_EEEC1B8ne180100Ev, symObjAddr: 0x2C, symBinAddr: 0x1000043E8, symSize: 0x2C }
  - { offset: 0xF492, size: 0x8, addend: 0x0, symName: __ZN4PageC1Ev, symObjAddr: 0x58, symBinAddr: 0x100004414, symSize: 0x2C }
  - { offset: 0xF4BC, size: 0x8, addend: 0x0, symName: __ZN4PageC2ERKS_, symObjAddr: 0x84, symBinAddr: 0x100004440, symSize: 0x64 }
  - { offset: 0xF4F4, size: 0x8, addend: 0x0, symName: __ZN4Page8loadPageEPKS_, symObjAddr: 0xE8, symBinAddr: 0x1000044A4, symSize: 0x90 }
  - { offset: 0xF579, size: 0x8, addend: 0x0, symName: __ZNSt3__16vectorI6RecordNS_9allocatorIS1_EEED1B8ne180100Ev, symObjAddr: 0x178, symBinAddr: 0x100004534, symSize: 0x2C }
  - { offset: 0xF5A1, size: 0x8, addend: 0x0, symName: __ZN4PageC1ERKS_, symObjAddr: 0x1A4, symBinAddr: 0x100004560, symSize: 0x34 }
  - { offset: 0xF5D9, size: 0x8, addend: 0x0, symName: __ZN4Page4sizeEv, symObjAddr: 0x1D8, symBinAddr: 0x100004594, symSize: 0x24 }
  - { offset: 0xF5FF, size: 0x8, addend: 0x0, symName: __ZNKSt3__16vectorI6RecordNS_9allocatorIS1_EEE4sizeB8ne180100Ev, symObjAddr: 0x1FC, symBinAddr: 0x1000045B8, symSize: 0x28 }
  - { offset: 0xF623, size: 0x8, addend: 0x0, symName: __ZN4Page5emptyEv, symObjAddr: 0x224, symBinAddr: 0x1000045E0, symSize: 0x28 }
  - { offset: 0xF649, size: 0x8, addend: 0x0, symName: __ZNKSt3__16vectorI6RecordNS_9allocatorIS1_EEE5emptyB8ne180100Ev, symObjAddr: 0x24C, symBinAddr: 0x100004608, symSize: 0x28 }
  - { offset: 0xF66D, size: 0x8, addend: 0x0, symName: __ZN4Page4fullEv, symObjAddr: 0x274, symBinAddr: 0x100004630, symSize: 0x30 }
  - { offset: 0xF693, size: 0x8, addend: 0x0, symName: __ZN4Page5resetEv, symObjAddr: 0x2A4, symBinAddr: 0x100004660, symSize: 0x24 }
  - { offset: 0xF6B9, size: 0x8, addend: 0x0, symName: __ZNSt3__16vectorI6RecordNS_9allocatorIS1_EEE5clearB8ne180100Ev, symObjAddr: 0x2C8, symBinAddr: 0x100004684, symSize: 0x44 }
  - { offset: 0xF6EC, size: 0x8, addend: 0x0, symName: __ZN4Page10get_recordEj, symObjAddr: 0x30C, symBinAddr: 0x1000046C8, symSize: 0x44 }
  - { offset: 0xF720, size: 0x8, addend: 0x0, symName: __ZNSt3__16vectorI6RecordNS_9allocatorIS1_EEEixB8ne180100Em, symObjAddr: 0x350, symBinAddr: 0x10000470C, symSize: 0x2C }
  - { offset: 0xF755, size: 0x8, addend: 0x0, symName: __ZN4Page10loadRecordERK6Record, symObjAddr: 0x37C, symBinAddr: 0x100004738, symSize: 0x74 }
  - { offset: 0xF789, size: 0x8, addend: 0x0, symName: __ZNSt3__16vectorI6RecordNS_9allocatorIS1_EEE12emplace_backIJRKS1_EEEvDpOT_, symObjAddr: 0x3F0, symBinAddr: 0x1000047AC, symSize: 0x90 }
  - { offset: 0xF7D8, size: 0x8, addend: 0x0, symName: __ZN4Page8loadPairERK6RecordS2_, symObjAddr: 0x54C, symBinAddr: 0x10000483C, symSize: 0x80 }
  - { offset: 0xF81A, size: 0x8, addend: 0x0, symName: __ZNSt3__16vectorI6RecordNS_9allocatorIS1_EEE9push_backB8ne180100ERKS1_, symObjAddr: 0x5CC, symBinAddr: 0x1000048BC, symSize: 0x90 }
  - { offset: 0xF85E, size: 0x8, addend: 0x0, symName: __ZNKSt3__16vectorI6RecordNS_9allocatorIS1_EEE5beginB8ne180100Ev, symObjAddr: 0x65C, symBinAddr: 0x10000494C, symSize: 0x30 }
  - { offset: 0xF884, size: 0x8, addend: 0x0, symName: __ZNKSt3__16vectorI6RecordNS_9allocatorIS1_EEE3endB8ne180100Ev, symObjAddr: 0x68C, symBinAddr: 0x10000497C, symSize: 0x30 }
  - { offset: 0xF8AA, size: 0x8, addend: 0x0, symName: __ZNKSt3__111__wrap_iterIPK6RecordEdeB8ne180100Ev, symObjAddr: 0x6F0, symBinAddr: 0x1000049E0, symSize: 0x18 }
  - { offset: 0xF8CE, size: 0x8, addend: 0x0, symName: __ZNSt3__111__wrap_iterIPK6RecordEppB8ne180100Ev, symObjAddr: 0x708, symBinAddr: 0x1000049F8, symSize: 0x20 }
  - { offset: 0xF8F3, size: 0x8, addend: 0x0, symName: __ZN4Page5printEv, symObjAddr: 0x728, symBinAddr: 0x100004A18, symSize: 0x78 }
  - { offset: 0xF969, size: 0x8, addend: 0x0, symName: __ZNSt3__16vectorI6RecordNS_9allocatorIS1_EEE5beginB8ne180100Ev, symObjAddr: 0x7A0, symBinAddr: 0x100004A90, symSize: 0x30 }
  - { offset: 0xF98F, size: 0x8, addend: 0x0, symName: __ZNSt3__16vectorI6RecordNS_9allocatorIS1_EEE3endB8ne180100Ev, symObjAddr: 0x7D0, symBinAddr: 0x100004AC0, symSize: 0x30 }
  - { offset: 0xF9B5, size: 0x8, addend: 0x0, symName: __ZNKSt3__111__wrap_iterIP6RecordEdeB8ne180100Ev, symObjAddr: 0x834, symBinAddr: 0x100004B24, symSize: 0x18 }
  - { offset: 0xF9D9, size: 0x8, addend: 0x0, symName: __ZNSt3__111__wrap_iterIP6RecordEppB8ne180100Ev, symObjAddr: 0x84C, symBinAddr: 0x100004B3C, symSize: 0x20 }
  - { offset: 0xF9FD, size: 0x8, addend: 0x0, symName: __ZNKSt3__111__wrap_iterIPK6RecordE4baseB8ne180100Ev, symObjAddr: 0x8B4, symBinAddr: 0x100004BA4, symSize: 0x18 }
  - { offset: 0xFA21, size: 0x8, addend: 0x0, symName: __ZNKSt3__111__wrap_iterIP6RecordE4baseB8ne180100Ev, symObjAddr: 0x914, symBinAddr: 0x100004C04, symSize: 0x18 }
  - { offset: 0xFA45, size: 0x8, addend: 0x0, symName: __ZNSt3__16vectorI6RecordNS_9allocatorIS1_EEEC2B8ne180100Ev, symObjAddr: 0x92C, symBinAddr: 0x100004C1C, symSize: 0x4C }
  - { offset: 0xFA7C, size: 0x8, addend: 0x0, symName: __ZNSt3__117__compressed_pairIP6RecordNS_9allocatorIS1_EEEC1B8ne180100IDnNS_18__default_init_tagEEEOT_OT0_, symObjAddr: 0x978, symBinAddr: 0x100004C68, symSize: 0x3C }
  - { offset: 0xFAD2, size: 0x8, addend: 0x0, symName: __ZNSt3__117__compressed_pairIP6RecordNS_9allocatorIS1_EEEC2B8ne180100IDnNS_18__default_init_tagEEEOT_OT0_, symObjAddr: 0x9C4, symBinAddr: 0x100004CA4, symSize: 0x40 }
  - { offset: 0xFB28, size: 0x8, addend: 0x0, symName: __ZNSt3__122__compressed_pair_elemIP6RecordLi0ELb0EEC2B8ne180100IDnvEEOT_, symObjAddr: 0xA04, symBinAddr: 0x100004CE4, symSize: 0x1C }
  - { offset: 0xFB69, size: 0x8, addend: 0x0, symName: __ZNSt3__122__compressed_pair_elemINS_9allocatorI6RecordEELi1ELb1EEC2B8ne180100ENS_18__default_init_tagE, symObjAddr: 0xA20, symBinAddr: 0x100004D00, symSize: 0x2C }
  - { offset: 0xFB9B, size: 0x8, addend: 0x0, symName: __ZNSt3__19allocatorI6RecordEC2B8ne180100Ev, symObjAddr: 0xA4C, symBinAddr: 0x100004D2C, symSize: 0x2C }
  - { offset: 0xFBC3, size: 0x8, addend: 0x0, symName: __ZNSt3__116__non_trivial_ifILb1ENS_9allocatorI6RecordEEEC2B8ne180100Ev, symObjAddr: 0xA78, symBinAddr: 0x100004D58, symSize: 0x14 }
  - { offset: 0xFBEB, size: 0x8, addend: 0x0, symName: __ZNSt3__16vectorI6RecordNS_9allocatorIS1_EEED2B8ne180100Ev, symObjAddr: 0xA8C, symBinAddr: 0x100004D6C, symSize: 0x44 }
  - { offset: 0xFC13, size: 0x8, addend: 0x0, symName: __ZNSt3__16vectorI6RecordNS_9allocatorIS1_EEE16__destroy_vectorC1B8ne180100ERS4_, symObjAddr: 0xAD0, symBinAddr: 0x100004DB0, symSize: 0x34 }
  - { offset: 0xFC4A, size: 0x8, addend: 0x0, symName: __ZNSt3__16vectorI6RecordNS_9allocatorIS1_EEE16__destroy_vectorclB8ne180100Ev, symObjAddr: 0xB04, symBinAddr: 0x100004DE4, symSize: 0x90 }
  - { offset: 0xFC6E, size: 0x8, addend: 0x0, symName: __ZNSt3__16vectorI6RecordNS_9allocatorIS1_EEE16__destroy_vectorC2B8ne180100ERS4_, symObjAddr: 0xB94, symBinAddr: 0x100004E74, symSize: 0x20 }
  - { offset: 0xFCA5, size: 0x8, addend: 0x0, symName: __ZNSt3__16vectorI6RecordNS_9allocatorIS1_EEE7__clearB8ne180100Ev, symObjAddr: 0xBB4, symBinAddr: 0x100004E94, symSize: 0x28 }
  - { offset: 0xFCC9, size: 0x8, addend: 0x0, symName: __ZNKSt3__16vectorI6RecordNS_9allocatorIS1_EEE17__annotate_deleteB8ne180100Ev, symObjAddr: 0xBDC, symBinAddr: 0x100004EBC, symSize: 0x10 }
  - { offset: 0xFCED, size: 0x8, addend: 0x0, symName: __ZNSt3__116allocator_traitsINS_9allocatorI6RecordEEE10deallocateB8ne180100ERS3_PS2_m, symObjAddr: 0xBEC, symBinAddr: 0x100004ECC, symSize: 0x34 }
  - { offset: 0xFD2E, size: 0x8, addend: 0x0, symName: __ZNSt3__16vectorI6RecordNS_9allocatorIS1_EEE7__allocB8ne180100Ev, symObjAddr: 0xC20, symBinAddr: 0x100004F00, symSize: 0x28 }
  - { offset: 0xFD52, size: 0x8, addend: 0x0, symName: __ZNKSt3__16vectorI6RecordNS_9allocatorIS1_EEE8capacityB8ne180100Ev, symObjAddr: 0xC48, symBinAddr: 0x100004F28, symSize: 0x40 }
  - { offset: 0xFD76, size: 0x8, addend: 0x0, symName: __ZNSt3__16vectorI6RecordNS_9allocatorIS1_EEE22__base_destruct_at_endB8ne180100EPS1_, symObjAddr: 0xC88, symBinAddr: 0x100004F68, symSize: 0x8C }
  - { offset: 0xFDB8, size: 0x8, addend: 0x0, symName: __ZNSt3__116allocator_traitsINS_9allocatorI6RecordEEE7destroyB8ne180100IS2_vEEvRS3_PT_, symObjAddr: 0xD14, symBinAddr: 0x100004FF4, symSize: 0x2C }
  - { offset: 0xFDF5, size: 0x8, addend: 0x0, symName: __ZNSt3__19allocatorI6RecordE7destroyB8ne180100EPS1_, symObjAddr: 0xD54, symBinAddr: 0x100005034, symSize: 0x28 }
  - { offset: 0xFE27, size: 0x8, addend: 0x0, symName: __ZN6RecordD1Ev, symObjAddr: 0xD7C, symBinAddr: 0x10000505C, symSize: 0x2C }
  - { offset: 0xFE51, size: 0x8, addend: 0x0, symName: __ZN6RecordD2Ev, symObjAddr: 0xDA8, symBinAddr: 0x100005088, symSize: 0x38 }
  - { offset: 0xFE7B, size: 0x8, addend: 0x0, symName: __ZNSt3__19allocatorI6RecordE10deallocateB8ne180100EPS1_m, symObjAddr: 0xDE0, symBinAddr: 0x1000050C0, symSize: 0x44 }
  - { offset: 0xFEBB, size: 0x8, addend: 0x0, symName: __ZNSt3__117__compressed_pairIP6RecordNS_9allocatorIS1_EEE6secondB8ne180100Ev, symObjAddr: 0xEA0, symBinAddr: 0x100005104, symSize: 0x24 }
  - { offset: 0xFEDF, size: 0x8, addend: 0x0, symName: __ZNSt3__122__compressed_pair_elemINS_9allocatorI6RecordEELi1ELb1EE5__getB8ne180100Ev, symObjAddr: 0xEC4, symBinAddr: 0x100005128, symSize: 0x14 }
  - { offset: 0xFF03, size: 0x8, addend: 0x0, symName: __ZNKSt3__16vectorI6RecordNS_9allocatorIS1_EEE9__end_capB8ne180100Ev, symObjAddr: 0xED8, symBinAddr: 0x10000513C, symSize: 0x28 }
  - { offset: 0xFF27, size: 0x8, addend: 0x0, symName: __ZNKSt3__117__compressed_pairIP6RecordNS_9allocatorIS1_EEE5firstB8ne180100Ev, symObjAddr: 0xF00, symBinAddr: 0x100005164, symSize: 0x24 }
  - { offset: 0xFF4B, size: 0x8, addend: 0x0, symName: __ZNKSt3__122__compressed_pair_elemIP6RecordLi0ELb0EE5__getB8ne180100Ev, symObjAddr: 0xF24, symBinAddr: 0x100005188, symSize: 0x14 }
  - { offset: 0xFF6F, size: 0x8, addend: 0x0, symName: __ZNKSt3__16vectorI6RecordNS_9allocatorIS1_EEE17__annotate_shrinkB8ne180100Em, symObjAddr: 0xF38, symBinAddr: 0x10000519C, symSize: 0x14 }
  - { offset: 0xFFA2, size: 0x8, addend: 0x0, symName: __ZNSt3__16vectorI6RecordNS_9allocatorIS1_EEE9__end_capB8ne180100Ev, symObjAddr: 0xF4C, symBinAddr: 0x1000051B0, symSize: 0x28 }
  - { offset: 0xFFC6, size: 0x8, addend: 0x0, symName: __ZNSt3__16vectorI6RecordNS_9allocatorIS1_EEE22__construct_one_at_endB8ne180100IJRKS1_EEEvDpOT_, symObjAddr: 0xF74, symBinAddr: 0x1000051D8, symSize: 0x90 }
  - { offset: 0x10013, size: 0x8, addend: 0x0, symName: __ZNSt3__16vectorI6RecordNS_9allocatorIS1_EEE24__emplace_back_slow_pathIJRKS1_EEEPS1_DpOT_, symObjAddr: 0x1004, symBinAddr: 0x100005268, symSize: 0xE8 }
  - { offset: 0x10071, size: 0x8, addend: 0x0, symName: __ZNSt3__117__compressed_pairIP6RecordNS_9allocatorIS1_EEE5firstB8ne180100Ev, symObjAddr: 0x10EC, symBinAddr: 0x100005350, symSize: 0x24 }
  - { offset: 0x10095, size: 0x8, addend: 0x0, symName: __ZNSt3__122__compressed_pair_elemIP6RecordLi0ELb0EE5__getB8ne180100Ev, symObjAddr: 0x1110, symBinAddr: 0x100005374, symSize: 0x14 }
  - { offset: 0x100D2, size: 0x8, addend: 0x0, symName: __ZNSt3__16vectorI6RecordNS_9allocatorIS1_EEE21_ConstructTransactionC1B8ne180100ERS4_m, symObjAddr: 0x1124, symBinAddr: 0x100005388, symSize: 0x3C }
  - { offset: 0x10118, size: 0x8, addend: 0x0, symName: __ZNSt3__116allocator_traitsINS_9allocatorI6RecordEEE9constructB8ne180100IS2_JRKS2_EvEEvRS3_PT_DpOT0_, symObjAddr: 0x1160, symBinAddr: 0x1000053C4, symSize: 0x34 }
  - { offset: 0x1016F, size: 0x8, addend: 0x0, symName: __ZNSt3__16vectorI6RecordNS_9allocatorIS1_EEE21_ConstructTransactionD1B8ne180100Ev, symObjAddr: 0x1194, symBinAddr: 0x1000053F8, symSize: 0x2C }
  - { offset: 0x10197, size: 0x8, addend: 0x0, symName: __ZNSt3__16vectorI6RecordNS_9allocatorIS1_EEE21_ConstructTransactionC2B8ne180100ERS4_m, symObjAddr: 0x11C0, symBinAddr: 0x100005424, symSize: 0x4C }
  - { offset: 0x101DD, size: 0x8, addend: 0x0, symName: __ZNSt3__19allocatorI6RecordE9constructB8ne180100IS1_JRKS1_EEEvPT_DpOT0_, symObjAddr: 0x120C, symBinAddr: 0x100005470, symSize: 0x30 }
  - { offset: 0x10231, size: 0x8, addend: 0x0, symName: __ZNSt3__16vectorI6RecordNS_9allocatorIS1_EEE21_ConstructTransactionD2B8ne180100Ev, symObjAddr: 0x123C, symBinAddr: 0x1000054A0, symSize: 0x20 }
  - { offset: 0x10259, size: 0x8, addend: 0x0, symName: __ZNKSt3__16vectorI6RecordNS_9allocatorIS1_EEE11__recommendB8ne180100Em, symObjAddr: 0x125C, symBinAddr: 0x1000054C0, symSize: 0xB4 }
  - { offset: 0x102AD, size: 0x8, addend: 0x0, symName: __ZNSt3__114__split_bufferI6RecordRNS_9allocatorIS1_EEEC1EmmS4_, symObjAddr: 0x1310, symBinAddr: 0x100005574, symSize: 0x44 }
  - { offset: 0x10302, size: 0x8, addend: 0x0, symName: __ZNSt3__114__split_bufferI6RecordRNS_9allocatorIS1_EEED1Ev, symObjAddr: 0x1464, symBinAddr: 0x1000056C8, symSize: 0x2C }
  - { offset: 0x1032C, size: 0x8, addend: 0x0, symName: __ZNKSt3__16vectorI6RecordNS_9allocatorIS1_EEE8max_sizeEv, symObjAddr: 0x1490, symBinAddr: 0x1000056F4, symSize: 0x60 }
  - { offset: 0x10352, size: 0x8, addend: 0x0, symName: __ZNKSt3__16vectorI6RecordNS_9allocatorIS1_EEE20__throw_length_errorB8ne180100Ev, symObjAddr: 0x14F0, symBinAddr: 0x100005754, symSize: 0x1C }
  - { offset: 0x10380, size: 0x8, addend: 0x0, symName: __ZNSt3__116allocator_traitsINS_9allocatorI6RecordEEE8max_sizeB8ne180100IS3_vEEmRKS3_, symObjAddr: 0x1564, symBinAddr: 0x10000579C, symSize: 0x24 }
  - { offset: 0x103AE, size: 0x8, addend: 0x0, symName: __ZNKSt3__16vectorI6RecordNS_9allocatorIS1_EEE7__allocB8ne180100Ev, symObjAddr: 0x1588, symBinAddr: 0x1000057C0, symSize: 0x28 }
  - { offset: 0x103D3, size: 0x8, addend: 0x0, symName: __ZNSt3__114numeric_limitsIlE3maxB8ne180100Ev, symObjAddr: 0x15B0, symBinAddr: 0x1000057E8, symSize: 0x14 }
  - { offset: 0x103F0, size: 0x8, addend: 0x0, symName: __ZNKSt3__19allocatorI6RecordE8max_sizeB8ne180100Ev, symObjAddr: 0x164C, symBinAddr: 0x1000057FC, symSize: 0x18 }
  - { offset: 0x10414, size: 0x8, addend: 0x0, symName: __ZNKSt3__117__compressed_pairIP6RecordNS_9allocatorIS1_EEE6secondB8ne180100Ev, symObjAddr: 0x1664, symBinAddr: 0x100005814, symSize: 0x24 }
  - { offset: 0x10438, size: 0x8, addend: 0x0, symName: __ZNKSt3__122__compressed_pair_elemINS_9allocatorI6RecordEELi1ELb1EE5__getB8ne180100Ev, symObjAddr: 0x1688, symBinAddr: 0x100005838, symSize: 0x14 }
  - { offset: 0x1045C, size: 0x8, addend: 0x0, symName: __ZNSt3__123__libcpp_numeric_limitsIlLb1EE3maxB8ne180100Ev, symObjAddr: 0x169C, symBinAddr: 0x10000584C, symSize: 0x8 }
  - { offset: 0x1046F, size: 0x8, addend: 0x0, symName: __ZNSt12length_errorC1B8ne180100EPKc, symObjAddr: 0x1708, symBinAddr: 0x1000058B8, symSize: 0x34 }
  - { offset: 0x104A5, size: 0x8, addend: 0x0, symName: __ZNSt12length_errorC2B8ne180100EPKc, symObjAddr: 0x173C, symBinAddr: 0x1000058EC, symSize: 0x44 }
  - { offset: 0x104DC, size: 0x8, addend: 0x0, symName: __ZNSt3__114__split_bufferI6RecordRNS_9allocatorIS1_EEEC2EmmS4_, symObjAddr: 0x17D4, symBinAddr: 0x100005984, symSize: 0xE0 }
  - { offset: 0x1054D, size: 0x8, addend: 0x0, symName: __ZNSt3__117__compressed_pairIP6RecordRNS_9allocatorIS1_EEEC1B8ne180100IDnS5_EEOT_OT0_, symObjAddr: 0x18B4, symBinAddr: 0x100005A64, symSize: 0x3C }
  - { offset: 0x105A3, size: 0x8, addend: 0x0, symName: __ZNSt3__114__split_bufferI6RecordRNS_9allocatorIS1_EEE7__allocB8ne180100Ev, symObjAddr: 0x1930, symBinAddr: 0x100005AE0, symSize: 0x28 }
  - { offset: 0x105C7, size: 0x8, addend: 0x0, symName: __ZNSt3__114__split_bufferI6RecordRNS_9allocatorIS1_EEE9__end_capB8ne180100Ev, symObjAddr: 0x1958, symBinAddr: 0x100005B08, symSize: 0x28 }
  - { offset: 0x105EB, size: 0x8, addend: 0x0, symName: __ZNSt3__117__compressed_pairIP6RecordRNS_9allocatorIS1_EEEC2B8ne180100IDnS5_EEOT_OT0_, symObjAddr: 0x1980, symBinAddr: 0x100005B30, symSize: 0x48 }
  - { offset: 0x10641, size: 0x8, addend: 0x0, symName: __ZNSt3__122__compressed_pair_elemIRNS_9allocatorI6RecordEELi1ELb0EEC2B8ne180100IS4_vEEOT_, symObjAddr: 0x19C8, symBinAddr: 0x100005B78, symSize: 0x20 }
  - { offset: 0x10682, size: 0x8, addend: 0x0, symName: __ZNSt3__19allocatorI6RecordE8allocateB8ne180100Em, symObjAddr: 0x19E8, symBinAddr: 0x100005B98, symSize: 0x5C }
  - { offset: 0x106B4, size: 0x8, addend: 0x0, symName: __ZNSt3__117__compressed_pairIP6RecordRNS_9allocatorIS1_EEE6secondB8ne180100Ev, symObjAddr: 0x1AC4, symBinAddr: 0x100005C74, symSize: 0x28 }
  - { offset: 0x106D8, size: 0x8, addend: 0x0, symName: __ZNSt3__122__compressed_pair_elemIRNS_9allocatorI6RecordEELi1ELb0EE5__getB8ne180100Ev, symObjAddr: 0x1AEC, symBinAddr: 0x100005C9C, symSize: 0x18 }
  - { offset: 0x106FC, size: 0x8, addend: 0x0, symName: __ZNSt3__117__compressed_pairIP6RecordRNS_9allocatorIS1_EEE5firstB8ne180100Ev, symObjAddr: 0x1B04, symBinAddr: 0x100005CB4, symSize: 0x24 }
  - { offset: 0x10720, size: 0x8, addend: 0x0, symName: __ZNSt3__116reverse_iteratorIP6RecordEC1B8ne180100ES2_, symObjAddr: 0x1C54, symBinAddr: 0x100005E04, symSize: 0x34 }
  - { offset: 0x10756, size: 0x8, addend: 0x0, symName: __ZNKSt3__116reverse_iteratorIP6RecordE4baseB8ne180100Ev, symObjAddr: 0x1C88, symBinAddr: 0x100005E38, symSize: 0x18 }
  - { offset: 0x1077A, size: 0x8, addend: 0x0, symName: __ZNKSt3__16vectorI6RecordNS_9allocatorIS1_EEE14__annotate_newB8ne180100Em, symObjAddr: 0x1CDC, symBinAddr: 0x100005E8C, symSize: 0x14 }
  - { offset: 0x107AD, size: 0x8, addend: 0x0, symName: __ZNSt3__129_AllocatorDestroyRangeReverseINS_9allocatorI6RecordEENS_16reverse_iteratorIPS2_EEEC1B8ne180100ERS3_RS6_S9_, symObjAddr: 0x1D3C, symBinAddr: 0x100005EEC, symSize: 0x44 }
  - { offset: 0x10802, size: 0x8, addend: 0x0, symName: __ZNKSt3__116reverse_iteratorIP6RecordEdeB8ne180100Ev, symObjAddr: 0x1DEC, symBinAddr: 0x100005F9C, symSize: 0x28 }
  - { offset: 0x10834, size: 0x8, addend: 0x0, symName: __ZNSt3__116reverse_iteratorIP6RecordEppB8ne180100Ev, symObjAddr: 0x1E14, symBinAddr: 0x100005FC4, symSize: 0x20 }
  - { offset: 0x10858, size: 0x8, addend: 0x0, symName: __ZNSt3__128__exception_guard_exceptionsINS_29_AllocatorDestroyRangeReverseINS_9allocatorI6RecordEENS_16reverse_iteratorIPS3_EEEEE10__completeB8ne180100Ev, symObjAddr: 0x1E34, symBinAddr: 0x100005FE4, symSize: 0x1C }
  - { offset: 0x1087C, size: 0x8, addend: 0x0, symName: __ZNSt3__128__exception_guard_exceptionsINS_29_AllocatorDestroyRangeReverseINS_9allocatorI6RecordEENS_16reverse_iteratorIPS3_EEEEED1B8ne180100Ev, symObjAddr: 0x1E50, symBinAddr: 0x100006000, symSize: 0x2C }
  - { offset: 0x108A4, size: 0x8, addend: 0x0, symName: __ZNSt3__128__exception_guard_exceptionsINS_29_AllocatorDestroyRangeReverseINS_9allocatorI6RecordEENS_16reverse_iteratorIPS3_EEEEEC1B8ne180100ES8_, symObjAddr: 0x1E7C, symBinAddr: 0x10000602C, symSize: 0x34 }
  - { offset: 0x108DB, size: 0x8, addend: 0x0, symName: __ZNSt3__128__exception_guard_exceptionsINS_29_AllocatorDestroyRangeReverseINS_9allocatorI6RecordEENS_16reverse_iteratorIPS3_EEEEEC2B8ne180100ES8_, symObjAddr: 0x1EB0, symBinAddr: 0x100006060, symSize: 0x30 }
  - { offset: 0x10912, size: 0x8, addend: 0x0, symName: __ZNSt3__129_AllocatorDestroyRangeReverseINS_9allocatorI6RecordEENS_16reverse_iteratorIPS2_EEEC2B8ne180100ERS3_RS6_S9_, symObjAddr: 0x1EE0, symBinAddr: 0x100006090, symSize: 0x38 }
  - { offset: 0x1096C, size: 0x8, addend: 0x0, symName: __ZNSt3__119__to_address_helperINS_16reverse_iteratorIP6RecordEEvE6__callB8ne180100ERKS4_, symObjAddr: 0x1F18, symBinAddr: 0x1000060C8, symSize: 0x38 }
  - { offset: 0x1098E, size: 0x8, addend: 0x0, symName: __ZNKSt3__116reverse_iteratorIP6RecordEptB8ne180100Ev, symObjAddr: 0x1F50, symBinAddr: 0x100006100, symSize: 0x24 }
  - { offset: 0x109B2, size: 0x8, addend: 0x0, symName: __ZNSt3__128__exception_guard_exceptionsINS_29_AllocatorDestroyRangeReverseINS_9allocatorI6RecordEENS_16reverse_iteratorIPS3_EEEEED2B8ne180100Ev, symObjAddr: 0x1F74, symBinAddr: 0x100006124, symSize: 0x50 }
  - { offset: 0x109DA, size: 0x8, addend: 0x0, symName: __ZNKSt3__129_AllocatorDestroyRangeReverseINS_9allocatorI6RecordEENS_16reverse_iteratorIPS2_EEEclB8ne180100Ev, symObjAddr: 0x1FC4, symBinAddr: 0x100006174, symSize: 0xB4 }
  - { offset: 0x109FF, size: 0x8, addend: 0x0, symName: __ZNSt3__116reverse_iteratorINS0_IP6RecordEEEC1B8ne180100ES3_, symObjAddr: 0x20E8, symBinAddr: 0x100006298, symSize: 0x3C }
  - { offset: 0x10A35, size: 0x8, addend: 0x0, symName: __ZNSt3__116reverse_iteratorINS0_IP6RecordEEEppB8ne180100Ev, symObjAddr: 0x21A8, symBinAddr: 0x100006358, symSize: 0x30 }
  - { offset: 0x10A59, size: 0x8, addend: 0x0, symName: __ZNKSt3__116reverse_iteratorINS0_IP6RecordEEE4baseB8ne180100Ev, symObjAddr: 0x21D8, symBinAddr: 0x100006388, symSize: 0x24 }
  - { offset: 0x10A82, size: 0x8, addend: 0x0, symName: __ZNSt3__119__to_address_helperINS_16reverse_iteratorINS1_IP6RecordEEEEvE6__callB8ne180100ERKS5_, symObjAddr: 0x21FC, symBinAddr: 0x1000063AC, symSize: 0x38 }
  - { offset: 0x10AA4, size: 0x8, addend: 0x0, symName: __ZNKSt3__116reverse_iteratorINS0_IP6RecordEEEptB8ne180100Ev, symObjAddr: 0x2234, symBinAddr: 0x1000063E4, symSize: 0x24 }
  - { offset: 0x10AC8, size: 0x8, addend: 0x0, symName: __ZNKSt3__116reverse_iteratorINS0_IP6RecordEEEdeB8ne180100Ev, symObjAddr: 0x2258, symBinAddr: 0x100006408, symSize: 0x34 }
  - { offset: 0x10AFA, size: 0x8, addend: 0x0, symName: __ZNSt3__116reverse_iteratorIP6RecordEmmB8ne180100Ev, symObjAddr: 0x228C, symBinAddr: 0x10000643C, symSize: 0x20 }
  - { offset: 0x10B1E, size: 0x8, addend: 0x0, symName: __ZNSt3__116reverse_iteratorINS0_IP6RecordEEEC2B8ne180100ES3_, symObjAddr: 0x22AC, symBinAddr: 0x10000645C, symSize: 0x2C }
  - { offset: 0x10B54, size: 0x8, addend: 0x0, symName: __ZNSt3__116reverse_iteratorIP6RecordEC2B8ne180100ES2_, symObjAddr: 0x22D8, symBinAddr: 0x100006488, symSize: 0x28 }
  - { offset: 0x10B8B, size: 0x8, addend: 0x0, symName: __ZNSt3__114__split_bufferI6RecordRNS_9allocatorIS1_EEED2Ev, symObjAddr: 0x2300, symBinAddr: 0x1000064B0, symSize: 0x8C }
  - { offset: 0x10BB5, size: 0x8, addend: 0x0, symName: __ZNSt3__114__split_bufferI6RecordRNS_9allocatorIS1_EEE5clearB8ne180100Ev, symObjAddr: 0x238C, symBinAddr: 0x10000653C, symSize: 0x28 }
  - { offset: 0x10BD9, size: 0x8, addend: 0x0, symName: __ZNKSt3__114__split_bufferI6RecordRNS_9allocatorIS1_EEE8capacityB8ne180100Ev, symObjAddr: 0x23B4, symBinAddr: 0x100006564, symSize: 0x40 }
  - { offset: 0x10BFD, size: 0x8, addend: 0x0, symName: __ZNSt3__114__split_bufferI6RecordRNS_9allocatorIS1_EEE17__destruct_at_endB8ne180100EPS1_, symObjAddr: 0x23F4, symBinAddr: 0x1000065A4, symSize: 0x2C }
  - { offset: 0x10C2F, size: 0x8, addend: 0x0, symName: __ZNSt3__114__split_bufferI6RecordRNS_9allocatorIS1_EEE17__destruct_at_endB8ne180100EPS1_NS_17integral_constantIbLb0EEE, symObjAddr: 0x2420, symBinAddr: 0x1000065D0, symSize: 0x80 }
  - { offset: 0x10C6D, size: 0x8, addend: 0x0, symName: __ZNKSt3__114__split_bufferI6RecordRNS_9allocatorIS1_EEE9__end_capB8ne180100Ev, symObjAddr: 0x24A0, symBinAddr: 0x100006650, symSize: 0x28 }
  - { offset: 0x10C91, size: 0x8, addend: 0x0, symName: __ZNKSt3__117__compressed_pairIP6RecordRNS_9allocatorIS1_EEE5firstB8ne180100Ev, symObjAddr: 0x24C8, symBinAddr: 0x100006678, symSize: 0x24 }
  - { offset: 0x10CB5, size: 0x8, addend: 0x0, symName: __ZNSt3__16vectorI6RecordNS_9allocatorIS1_EEE21__push_back_slow_pathIRKS1_EEPS1_OT_, symObjAddr: 0x2FCC, symBinAddr: 0x10000669C, symSize: 0xE8 }
  - { offset: 0x10D11, size: 0x8, addend: 0x0, symName: __ZNKSt3__16vectorI6RecordNS_9allocatorIS1_EEE11__make_iterB8ne180100EPKS1_, symObjAddr: 0x30B4, symBinAddr: 0x100006784, symSize: 0x30 }
  - { offset: 0x10D44, size: 0x8, addend: 0x0, symName: __ZNSt3__111__wrap_iterIPK6RecordEC1B8ne180100ES3_, symObjAddr: 0x30E4, symBinAddr: 0x1000067B4, symSize: 0x34 }
  - { offset: 0x10D7A, size: 0x8, addend: 0x0, symName: __ZNSt3__111__wrap_iterIPK6RecordEC2B8ne180100ES3_, symObjAddr: 0x3118, symBinAddr: 0x1000067E8, symSize: 0x20 }
  - { offset: 0x10DB0, size: 0x8, addend: 0x0, symName: __ZNSt3__16vectorI6RecordNS_9allocatorIS1_EEE11__make_iterB8ne180100EPS1_, symObjAddr: 0x3138, symBinAddr: 0x100006808, symSize: 0x30 }
  - { offset: 0x10DE3, size: 0x8, addend: 0x0, symName: __ZNSt3__111__wrap_iterIP6RecordEC1B8ne180100ES2_, symObjAddr: 0x3168, symBinAddr: 0x100006838, symSize: 0x34 }
  - { offset: 0x10E19, size: 0x8, addend: 0x0, symName: __ZNSt3__111__wrap_iterIP6RecordEC2B8ne180100ES2_, symObjAddr: 0x319C, symBinAddr: 0x10000686C, symSize: 0x20 }
  - { offset: 0x19189, size: 0x8, addend: 0x0, symName: __ZNSt3__1neB8ne180100IPNS_10shared_ptrI4PageEEEEbRKNS_11__wrap_iterIT_EES9_, symObjAddr: 0x17C, symBinAddr: 0x100006A08, symSize: 0x34 }
  - { offset: 0x191CC, size: 0x8, addend: 0x0, symName: __ZNSt3__111make_sharedB8ne180100I4PageJRS1_EvEENS_10shared_ptrIT_EEDpOT0_, symObjAddr: 0x4B0, symBinAddr: 0x100006C60, symSize: 0x40 }
  - { offset: 0x19FCB, size: 0x8, addend: 0x0, symName: __ZNSt3__111make_sharedB8ne180100I4PageJEvEENS_10shared_ptrIT_EEDpOT0_, symObjAddr: 0xCB8, symBinAddr: 0x10000743C, symSize: 0x38 }
  - { offset: 0x19FFA, size: 0x8, addend: 0x0, symName: __ZNSt3__17getlineB8ne180100IcNS_11char_traitsIcEENS_9allocatorIcEEEERNS_13basic_istreamIT_T0_EES9_RNS_12basic_stringIS6_S7_T1_EE, symObjAddr: 0xCF0, symBinAddr: 0x100007474, symSize: 0x5C }
  - { offset: 0x1A052, size: 0x8, addend: 0x0, symName: __ZNSt3__19make_pairB8ne180100IRjS1_EENS_4pairINS_18__unwrap_ref_decayIT_E4typeENS3_IT0_E4typeEEEOS4_OS7_, symObjAddr: 0xE80, symBinAddr: 0x1000075D8, symSize: 0x34 }
  - { offset: 0x1A0AC, size: 0x8, addend: 0x0, symName: __ZNSt3__1eqB8ne180100IPNS_10shared_ptrI4PageEEEEbRKNS_11__wrap_iterIT_EES9_, symObjAddr: 0xEF4, symBinAddr: 0x10000764C, symSize: 0x48 }
  - { offset: 0x1A0EF, size: 0x8, addend: 0x0, symName: __ZNSt3__112__to_addressB8ne180100INS_10shared_ptrI4PageEEEEPT_S5_, symObjAddr: 0x148C, symBinAddr: 0x100007BAC, symSize: 0x14 }
  - { offset: 0x1A124, size: 0x8, addend: 0x0, symName: __ZNSt3__115allocate_sharedB8ne180100I4PageNS_9allocatorIS1_EEJRS1_EvEENS_10shared_ptrIT_EERKT0_DpOT1_, symObjAddr: 0x2180, symBinAddr: 0x100007D44, symSize: 0x98 }
  - { offset: 0x1A5B7, size: 0x8, addend: 0x0, symName: __ZNSt3__134__libcpp_atomic_refcount_decrementB8ne180100IlEET_RS1_, symObjAddr: 0x31C0, symBinAddr: 0x10000890C, symSize: 0x30 }
  - { offset: 0x1A5EC, size: 0x8, addend: 0x0, symName: __ZNSt3__119__allocate_at_leastB8ne180100INS_9allocatorINS_10shared_ptrI4PageEEEEEENS_19__allocation_resultINS_16allocator_traitsIT_E7pointerEEERS8_m, symObjAddr: 0x3BF0, symBinAddr: 0x100009110, symSize: 0x40 }
  - { offset: 0x1A62F, size: 0x8, addend: 0x0, symName: __ZNSt3__142__uninitialized_allocator_move_if_noexceptB8ne180100INS_9allocatorINS_10shared_ptrI4PageEEEENS_16reverse_iteratorIPS4_EES8_S8_EET2_RT_T0_T1_S9_, symObjAddr: 0x3DA4, symBinAddr: 0x1000092C4, symSize: 0x12C }
  - { offset: 0x1A6CF, size: 0x8, addend: 0x0, symName: __ZNSt3__14swapB8ne180100IPNS_10shared_ptrI4PageEEEENS_9enable_ifIXaasr21is_move_constructibleIT_EE5valuesr18is_move_assignableIS6_EE5valueEvE4typeERS6_S9_, symObjAddr: 0x3F1C, symBinAddr: 0x10000943C, symSize: 0x3C }
  - { offset: 0x1A720, size: 0x8, addend: 0x0, symName: __ZNSt3__122__make_exception_guardB8ne180100INS_29_AllocatorDestroyRangeReverseINS_9allocatorINS_10shared_ptrI4PageEEEENS_16reverse_iteratorIPS5_EEEEEENS_28__exception_guard_exceptionsIT_EESC_, symObjAddr: 0x3F6C, symBinAddr: 0x10000948C, symSize: 0x4C }
  - { offset: 0x1A756, size: 0x8, addend: 0x0, symName: __ZNSt3__1neB8ne180100IPNS_10shared_ptrI4PageEES4_EEbRKNS_16reverse_iteratorIT_EERKNS5_IT0_EE, symObjAddr: 0x3FFC, symBinAddr: 0x10000951C, symSize: 0x48 }
  - { offset: 0x1A7A2, size: 0x8, addend: 0x0, symName: __ZNSt3__112__to_addressB8ne180100INS_16reverse_iteratorIPNS_10shared_ptrI4PageEEEEvEEu7__decayIDTclsr19__to_address_helperIT_EE6__callclsr3stdE7declvalIRKS7_EEEEES9_, symObjAddr: 0x4044, symBinAddr: 0x100009564, symSize: 0x24 }
  - { offset: 0x1A803, size: 0x8, addend: 0x0, symName: __ZNSt3__119__allocator_destroyB8ne180100INS_9allocatorINS_10shared_ptrI4PageEEEENS_16reverse_iteratorINS6_IPS4_EEEES9_EEvRT_T0_T1_, symObjAddr: 0x42F4, symBinAddr: 0x100009814, symSize: 0x70 }
  - { offset: 0x1A868, size: 0x8, addend: 0x0, symName: __ZNSt3__1neB8ne180100INS_16reverse_iteratorIPNS_10shared_ptrI4PageEEEES6_EEbRKNS1_IT_EERKNS1_IT0_EE, symObjAddr: 0x43A0, symBinAddr: 0x1000098C0, symSize: 0x60 }
  - { offset: 0x1A8B4, size: 0x8, addend: 0x0, symName: __ZNSt3__112__to_addressB8ne180100INS_16reverse_iteratorINS1_IPNS_10shared_ptrI4PageEEEEEEvEEu7__decayIDTclsr19__to_address_helperIT_EE6__callclsr3stdE7declvalIRKS8_EEEEESA_, symObjAddr: 0x4400, symBinAddr: 0x100009920, symSize: 0x24 }
  - { offset: 0x1A915, size: 0x8, addend: 0x0, symName: __ZNSt3__115allocate_sharedB8ne180100I4PageNS_9allocatorIS1_EEJEvEENS_10shared_ptrIT_EERKT0_DpOT1_, symObjAddr: 0x4A24, symBinAddr: 0x100009E50, symSize: 0x90 }
  - { offset: 0x1A97A, size: 0x8, addend: 0x0, symName: __ZNSt3__17getlineB8ne180100IcNS_11char_traitsIcEENS_9allocatorIcEEEERNS_13basic_istreamIT_T0_EES9_RNS_12basic_stringIS6_S7_T1_EES6_, symObjAddr: 0x4BE8, symBinAddr: 0x10000A014, symSize: 0x238 }
  - { offset: 0x1C0EB, size: 0x8, addend: 0x0, symName: __ZNSt3__16vectorINS_10shared_ptrI4PageEENS_9allocatorIS3_EEE26__swap_out_circular_bufferERNS_14__split_bufferIS3_RS5_EE, symObjAddr: 0x3664, symBinAddr: 0x100008DB0, symSize: 0x110 }
  - { offset: 0x1C25A, size: 0x8, addend: 0x0, symName: __ZN4DiskC2Ev, symObjAddr: 0x0, symBinAddr: 0x10000688C, symSize: 0x2C }
  - { offset: 0x1C284, size: 0x8, addend: 0x0, symName: __ZNSt3__16vectorINS_10shared_ptrI4PageEENS_9allocatorIS3_EEEC1B8ne180100Ev, symObjAddr: 0x2C, symBinAddr: 0x1000068B8, symSize: 0x2C }
  - { offset: 0x1C2AC, size: 0x8, addend: 0x0, symName: __ZN4DiskC1Ev, symObjAddr: 0x58, symBinAddr: 0x1000068E4, symSize: 0x2C }
  - { offset: 0x1C2D6, size: 0x8, addend: 0x0, symName: __ZN4DiskD2Ev, symObjAddr: 0x84, symBinAddr: 0x100006910, symSize: 0x98 }
  - { offset: 0x1C341, size: 0x8, addend: 0x0, symName: __ZNSt3__16vectorINS_10shared_ptrI4PageEENS_9allocatorIS3_EEE5beginB8ne180100Ev, symObjAddr: 0x11C, symBinAddr: 0x1000069A8, symSize: 0x30 }
  - { offset: 0x1C367, size: 0x8, addend: 0x0, symName: __ZNSt3__16vectorINS_10shared_ptrI4PageEENS_9allocatorIS3_EEE3endB8ne180100Ev, symObjAddr: 0x14C, symBinAddr: 0x1000069D8, symSize: 0x30 }
  - { offset: 0x1C38D, size: 0x8, addend: 0x0, symName: __ZNKSt3__111__wrap_iterIPNS_10shared_ptrI4PageEEEdeB8ne180100Ev, symObjAddr: 0x1B0, symBinAddr: 0x100006A3C, symSize: 0x18 }
  - { offset: 0x1C3B1, size: 0x8, addend: 0x0, symName: __ZNKSt3__110shared_ptrI4PageEptB8ne180100Ev, symObjAddr: 0x1C8, symBinAddr: 0x100006A54, symSize: 0x18 }
  - { offset: 0x1C3D5, size: 0x8, addend: 0x0, symName: __ZNSt3__111__wrap_iterIPNS_10shared_ptrI4PageEEEppB8ne180100Ev, symObjAddr: 0x1F0, symBinAddr: 0x100006A6C, symSize: 0x20 }
  - { offset: 0x1C3F9, size: 0x8, addend: 0x0, symName: __ZNSt3__16vectorINS_10shared_ptrI4PageEENS_9allocatorIS3_EEED1B8ne180100Ev, symObjAddr: 0x210, symBinAddr: 0x100006A8C, symSize: 0x2C }
  - { offset: 0x1C421, size: 0x8, addend: 0x0, symName: __ZN4DiskD1Ev, symObjAddr: 0x23C, symBinAddr: 0x100006AB8, symSize: 0x2C }
  - { offset: 0x1C44B, size: 0x8, addend: 0x0, symName: __ZN4Disk9diskWriteERNSt3__110shared_ptrI4PageEE, symObjAddr: 0x268, symBinAddr: 0x100006AE4, symSize: 0xC4 }
  - { offset: 0x1C48D, size: 0x8, addend: 0x0, symName: __ZNKSt3__16vectorINS_10shared_ptrI4PageEENS_9allocatorIS3_EEE4sizeB8ne180100Ev, symObjAddr: 0x32C, symBinAddr: 0x100006BA8, symSize: 0x28 }
  - { offset: 0x1C4B1, size: 0x8, addend: 0x0, symName: __ZNSt3__16vectorINS_10shared_ptrI4PageEENS_9allocatorIS3_EEE9push_backB8ne180100EOS3_, symObjAddr: 0x420, symBinAddr: 0x100006BD0, symSize: 0x90 }
  - { offset: 0x1C4F5, size: 0x8, addend: 0x0, symName: __ZNKSt3__110shared_ptrI4PageEdeB8ne180100Ev, symObjAddr: 0x4F0, symBinAddr: 0x100006CA0, symSize: 0x18 }
  - { offset: 0x1C519, size: 0x8, addend: 0x0, symName: __ZNSt3__110shared_ptrI4PageED1B8ne180100Ev, symObjAddr: 0x508, symBinAddr: 0x100006CB8, symSize: 0x2C }
  - { offset: 0x1C541, size: 0x8, addend: 0x0, symName: __ZN4Disk8diskReadEj, symObjAddr: 0x534, symBinAddr: 0x100006CE4, symSize: 0x84 }
  - { offset: 0x1C575, size: 0x8, addend: 0x0, symName: __ZNSt3__16vectorINS_10shared_ptrI4PageEENS_9allocatorIS3_EEEixB8ne180100Em, symObjAddr: 0x5B8, symBinAddr: 0x100006D68, symSize: 0x24 }
  - { offset: 0x1C5AA, size: 0x8, addend: 0x0, symName: __ZNKSt3__110shared_ptrI4PageE3getB8ne180100Ev, symObjAddr: 0x5DC, symBinAddr: 0x100006D8C, symSize: 0x18 }
  - { offset: 0x1C5CE, size: 0x8, addend: 0x0, symName: __ZN4Disk5printEj, symObjAddr: 0x5F4, symBinAddr: 0x100006DA4, symSize: 0x38 }
  - { offset: 0x1C602, size: 0x8, addend: 0x0, symName: __ZN4Disk5printEv, symObjAddr: 0x62C, symBinAddr: 0x100006DDC, symSize: 0xC4 }
  - { offset: 0x1C644, size: 0x8, addend: 0x0, symName: __ZNKSt3__110shared_ptrI4PageEcvbB8ne180100Ev, symObjAddr: 0x6F0, symBinAddr: 0x100006EA0, symSize: 0x30 }
  - { offset: 0x1C668, size: 0x8, addend: 0x0, symName: __ZN4Disk9read_dataEPKc, symObjAddr: 0x720, symBinAddr: 0x100006ED0, symSize: 0x3D4 }
  - { offset: 0x1C721, size: 0x8, addend: 0x0, symName: __ZNSt3__112basic_stringIcNS_11char_traitsIcEENS_9allocatorIcEEEC1B8ne180100ILi0EEEPKc, symObjAddr: 0xAF4, symBinAddr: 0x1000072A4, symSize: 0x34 }
  - { offset: 0x1CA3A, size: 0x8, addend: 0x0, symName: __ZNSt3__114basic_ifstreamIcNS_11char_traitsIcEEEC1ERKNS_12basic_stringIcS2_NS_9allocatorIcEEEEj, symObjAddr: 0xB28, symBinAddr: 0x1000072D8, symSize: 0x164 }
  - { offset: 0x1CA82, size: 0x8, addend: 0x0, symName: __ZNKSt3__19basic_iosIcNS_11char_traitsIcEEEcvbB8ne180100Ev, symObjAddr: 0xD4C, symBinAddr: 0x1000074D0, symSize: 0x2C }
  - { offset: 0x1CAA6, size: 0x8, addend: 0x0, symName: __ZNSt3__16vectorINS_10shared_ptrI4PageEENS_9allocatorIS3_EEE4backB8ne180100Ev, symObjAddr: 0xD78, symBinAddr: 0x1000074FC, symSize: 0x1C }
  - { offset: 0x1CACA, size: 0x8, addend: 0x0, symName: __ZNKSt3__112basic_stringIcNS_11char_traitsIcEENS_9allocatorIcEEE6substrB8ne180100Emm, symObjAddr: 0xD94, symBinAddr: 0x100007518, symSize: 0x68 }
  - { offset: 0x1CB0C, size: 0x8, addend: 0x0, symName: __ZNSt3__114basic_ifstreamIcNS_11char_traitsIcEEE5closeEv, symObjAddr: 0xE28, symBinAddr: 0x100007580, symSize: 0x58 }
  - { offset: 0x1CB38, size: 0x8, addend: 0x0, symName: __ZNSt3__114basic_ifstreamIcNS_11char_traitsIcEEED1Ev, symObjAddr: 0xEB4, symBinAddr: 0x10000760C, symSize: 0x40 }
  - { offset: 0x1CB63, size: 0x8, addend: 0x0, symName: __ZNKSt3__111__wrap_iterIPNS_10shared_ptrI4PageEEE4baseB8ne180100Ev, symObjAddr: 0xF3C, symBinAddr: 0x100007694, symSize: 0x18 }
  - { offset: 0x1CB87, size: 0x8, addend: 0x0, symName: __ZNSt3__14pairIjjEC1B8ne180100IRjS3_Li0EEEOT_OT0_, symObjAddr: 0xF8C, symBinAddr: 0x1000076AC, symSize: 0x3C }
  - { offset: 0x1CBE3, size: 0x8, addend: 0x0, symName: __ZNSt3__14pairIjjEC2B8ne180100IRjS3_Li0EEEOT_OT0_, symObjAddr: 0xFC8, symBinAddr: 0x1000076E8, symSize: 0x34 }
  - { offset: 0x1CC40, size: 0x8, addend: 0x0, symName: __ZNSt3__114basic_ifstreamIcNS_11char_traitsIcEEED2Ev, symObjAddr: 0xFFC, symBinAddr: 0x10000771C, symSize: 0x64 }
  - { offset: 0x1CC78, size: 0x8, addend: 0x0, symName: __ZTv0_n24_NSt3__114basic_ifstreamIcNS_11char_traitsIcEEED1Ev, symObjAddr: 0x1060, symBinAddr: 0x100007780, symSize: 0x28 }
  - { offset: 0x1CC8E, size: 0x8, addend: 0x0, symName: __ZNSt3__16vectorINS_10shared_ptrI4PageEENS_9allocatorIS3_EEEC2B8ne180100Ev, symObjAddr: 0x1088, symBinAddr: 0x1000077A8, symSize: 0x4C }
  - { offset: 0x1CCC0, size: 0x8, addend: 0x0, symName: __ZNSt3__117__compressed_pairIPNS_10shared_ptrI4PageEENS_9allocatorIS3_EEEC1B8ne180100IDnNS_18__default_init_tagEEEOT_OT0_, symObjAddr: 0x10D4, symBinAddr: 0x1000077F4, symSize: 0x3C }
  - { offset: 0x1CD16, size: 0x8, addend: 0x0, symName: __ZNSt3__117__compressed_pairIPNS_10shared_ptrI4PageEENS_9allocatorIS3_EEEC2B8ne180100IDnNS_18__default_init_tagEEEOT_OT0_, symObjAddr: 0x1110, symBinAddr: 0x100007830, symSize: 0x40 }
  - { offset: 0x1CD6C, size: 0x8, addend: 0x0, symName: __ZNSt3__122__compressed_pair_elemIPNS_10shared_ptrI4PageEELi0ELb0EEC2B8ne180100IDnvEEOT_, symObjAddr: 0x1150, symBinAddr: 0x100007870, symSize: 0x1C }
  - { offset: 0x1CDAD, size: 0x8, addend: 0x0, symName: __ZNSt3__122__compressed_pair_elemINS_9allocatorINS_10shared_ptrI4PageEEEELi1ELb1EEC2B8ne180100ENS_18__default_init_tagE, symObjAddr: 0x116C, symBinAddr: 0x10000788C, symSize: 0x2C }
  - { offset: 0x1CDDF, size: 0x8, addend: 0x0, symName: __ZNSt3__19allocatorINS_10shared_ptrI4PageEEEC2B8ne180100Ev, symObjAddr: 0x1198, symBinAddr: 0x1000078B8, symSize: 0x2C }
  - { offset: 0x1CE07, size: 0x8, addend: 0x0, symName: __ZNSt3__116__non_trivial_ifILb1ENS_9allocatorINS_10shared_ptrI4PageEEEEEC2B8ne180100Ev, symObjAddr: 0x11C4, symBinAddr: 0x1000078E4, symSize: 0x14 }
  - { offset: 0x1CE2F, size: 0x8, addend: 0x0, symName: __ZNSt3__16vectorINS_10shared_ptrI4PageEENS_9allocatorIS3_EEED2B8ne180100Ev, symObjAddr: 0x11D8, symBinAddr: 0x1000078F8, symSize: 0x44 }
  - { offset: 0x1CE57, size: 0x8, addend: 0x0, symName: __ZNSt3__16vectorINS_10shared_ptrI4PageEENS_9allocatorIS3_EEE16__destroy_vectorC1B8ne180100ERS6_, symObjAddr: 0x121C, symBinAddr: 0x10000793C, symSize: 0x34 }
  - { offset: 0x1CE8E, size: 0x8, addend: 0x0, symName: __ZNSt3__16vectorINS_10shared_ptrI4PageEENS_9allocatorIS3_EEE16__destroy_vectorclB8ne180100Ev, symObjAddr: 0x1250, symBinAddr: 0x100007970, symSize: 0x90 }
  - { offset: 0x1CEB2, size: 0x8, addend: 0x0, symName: __ZNSt3__16vectorINS_10shared_ptrI4PageEENS_9allocatorIS3_EEE16__destroy_vectorC2B8ne180100ERS6_, symObjAddr: 0x12E0, symBinAddr: 0x100007A00, symSize: 0x20 }
  - { offset: 0x1CEE9, size: 0x8, addend: 0x0, symName: __ZNSt3__16vectorINS_10shared_ptrI4PageEENS_9allocatorIS3_EEE7__clearB8ne180100Ev, symObjAddr: 0x1300, symBinAddr: 0x100007A20, symSize: 0x28 }
  - { offset: 0x1CF0D, size: 0x8, addend: 0x0, symName: __ZNKSt3__16vectorINS_10shared_ptrI4PageEENS_9allocatorIS3_EEE17__annotate_deleteB8ne180100Ev, symObjAddr: 0x1328, symBinAddr: 0x100007A48, symSize: 0x10 }
  - { offset: 0x1CF31, size: 0x8, addend: 0x0, symName: __ZNSt3__116allocator_traitsINS_9allocatorINS_10shared_ptrI4PageEEEEE10deallocateB8ne180100ERS5_PS4_m, symObjAddr: 0x1338, symBinAddr: 0x100007A58, symSize: 0x34 }
  - { offset: 0x1CF72, size: 0x8, addend: 0x0, symName: __ZNSt3__16vectorINS_10shared_ptrI4PageEENS_9allocatorIS3_EEE7__allocB8ne180100Ev, symObjAddr: 0x136C, symBinAddr: 0x100007A8C, symSize: 0x28 }
  - { offset: 0x1CF96, size: 0x8, addend: 0x0, symName: __ZNKSt3__16vectorINS_10shared_ptrI4PageEENS_9allocatorIS3_EEE8capacityB8ne180100Ev, symObjAddr: 0x1394, symBinAddr: 0x100007AB4, symSize: 0x40 }
  - { offset: 0x1CFBA, size: 0x8, addend: 0x0, symName: __ZNSt3__16vectorINS_10shared_ptrI4PageEENS_9allocatorIS3_EEE22__base_destruct_at_endB8ne180100EPS3_, symObjAddr: 0x13D4, symBinAddr: 0x100007AF4, symSize: 0x8C }
  - { offset: 0x1CFFC, size: 0x8, addend: 0x0, symName: __ZNSt3__116allocator_traitsINS_9allocatorINS_10shared_ptrI4PageEEEEE7destroyB8ne180100IS4_vEEvRS5_PT_, symObjAddr: 0x1460, symBinAddr: 0x100007B80, symSize: 0x2C }
  - { offset: 0x1D039, size: 0x8, addend: 0x0, symName: __ZNSt3__19allocatorINS_10shared_ptrI4PageEEE7destroyB8ne180100EPS3_, symObjAddr: 0x14A0, symBinAddr: 0x100007BC0, symSize: 0x28 }
  - { offset: 0x1D06B, size: 0x8, addend: 0x0, symName: __ZNSt3__19allocatorINS_10shared_ptrI4PageEEE10deallocateB8ne180100EPS3_m, symObjAddr: 0x14C8, symBinAddr: 0x100007BE8, symSize: 0x40 }
  - { offset: 0x1D0AB, size: 0x8, addend: 0x0, symName: __ZNSt3__117__compressed_pairIPNS_10shared_ptrI4PageEENS_9allocatorIS3_EEE6secondB8ne180100Ev, symObjAddr: 0x1584, symBinAddr: 0x100007C28, symSize: 0x24 }
  - { offset: 0x1D0CF, size: 0x8, addend: 0x0, symName: __ZNSt3__122__compressed_pair_elemINS_9allocatorINS_10shared_ptrI4PageEEEELi1ELb1EE5__getB8ne180100Ev, symObjAddr: 0x15A8, symBinAddr: 0x100007C4C, symSize: 0x14 }
  - { offset: 0x1D0F3, size: 0x8, addend: 0x0, symName: __ZNKSt3__16vectorINS_10shared_ptrI4PageEENS_9allocatorIS3_EEE9__end_capB8ne180100Ev, symObjAddr: 0x15BC, symBinAddr: 0x100007C60, symSize: 0x28 }
  - { offset: 0x1D117, size: 0x8, addend: 0x0, symName: __ZNKSt3__117__compressed_pairIPNS_10shared_ptrI4PageEENS_9allocatorIS3_EEE5firstB8ne180100Ev, symObjAddr: 0x15E4, symBinAddr: 0x100007C88, symSize: 0x24 }
  - { offset: 0x1D13B, size: 0x8, addend: 0x0, symName: __ZNKSt3__122__compressed_pair_elemIPNS_10shared_ptrI4PageEELi0ELb0EE5__getB8ne180100Ev, symObjAddr: 0x1608, symBinAddr: 0x100007CAC, symSize: 0x14 }
  - { offset: 0x1D15F, size: 0x8, addend: 0x0, symName: __ZNSt3__16vectorINS_10shared_ptrI4PageEENS_9allocatorIS3_EEE11__make_iterB8ne180100EPS3_, symObjAddr: 0x161C, symBinAddr: 0x100007CC0, symSize: 0x30 }
  - { offset: 0x1D192, size: 0x8, addend: 0x0, symName: __ZNSt3__111__wrap_iterIPNS_10shared_ptrI4PageEEEC1B8ne180100ES4_, symObjAddr: 0x164C, symBinAddr: 0x100007CF0, symSize: 0x34 }
  - { offset: 0x1D1C8, size: 0x8, addend: 0x0, symName: __ZNSt3__111__wrap_iterIPNS_10shared_ptrI4PageEEEC2B8ne180100ES4_, symObjAddr: 0x1680, symBinAddr: 0x100007D24, symSize: 0x20 }
  - { offset: 0x1D1FE, size: 0x8, addend: 0x0, symName: __ZNSt3__19allocatorI4PageEC1B8ne180100Ev, symObjAddr: 0x2218, symBinAddr: 0x100007DDC, symSize: 0x2C }
  - { offset: 0x1D271, size: 0x8, addend: 0x0, symName: __ZNSt3__118__allocation_guardINS_9allocatorINS_20__shared_ptr_emplaceI4PageNS1_IS3_EEEEEEEC1B8ne180100IS4_EET_m, symObjAddr: 0x2244, symBinAddr: 0x100007E08, symSize: 0x34 }
  - { offset: 0x1D2BE, size: 0x8, addend: 0x0, symName: __ZNKSt3__118__allocation_guardINS_9allocatorINS_20__shared_ptr_emplaceI4PageNS1_IS3_EEEEEEE5__getB8ne180100Ev, symObjAddr: 0x2278, symBinAddr: 0x100007E3C, symSize: 0x18 }
  - { offset: 0x1D2E2, size: 0x8, addend: 0x0, symName: __ZNSt3__120__shared_ptr_emplaceI4PageNS_9allocatorIS1_EEEC1B8ne180100IJRS1_ES3_Li0EEES3_DpOT_, symObjAddr: 0x2290, symBinAddr: 0x100007E54, symSize: 0x34 }
  - { offset: 0x1D342, size: 0x8, addend: 0x0, symName: __ZNSt3__118__allocation_guardINS_9allocatorINS_20__shared_ptr_emplaceI4PageNS1_IS3_EEEEEEE13__release_ptrB8ne180100Ev, symObjAddr: 0x22C4, symBinAddr: 0x100007E88, symSize: 0x24 }
  - { offset: 0x1D374, size: 0x8, addend: 0x0, symName: __ZNSt3__110shared_ptrI4PageE27__create_with_control_blockB8ne180100IS1_NS_20__shared_ptr_emplaceIS1_NS_9allocatorIS1_EEEEEES2_PT_PT0_, symObjAddr: 0x22E8, symBinAddr: 0x100007EAC, symSize: 0xA4 }
  - { offset: 0x1D3C8, size: 0x8, addend: 0x0, symName: __ZNSt3__120__shared_ptr_emplaceI4PageNS_9allocatorIS1_EEE10__get_elemB8ne180100Ev, symObjAddr: 0x238C, symBinAddr: 0x100007F50, symSize: 0x28 }
  - { offset: 0x1D3EC, size: 0x8, addend: 0x0, symName: __ZNSt3__118__allocation_guardINS_9allocatorINS_20__shared_ptr_emplaceI4PageNS1_IS3_EEEEEEED1B8ne180100Ev, symObjAddr: 0x23B4, symBinAddr: 0x100007F78, symSize: 0x2C }
  - { offset: 0x1D414, size: 0x8, addend: 0x0, symName: __ZNSt3__118__allocation_guardINS_9allocatorINS_20__shared_ptr_emplaceI4PageNS1_IS3_EEEEEEEC2B8ne180100IS4_EET_m, symObjAddr: 0x23E0, symBinAddr: 0x100007FA4, symSize: 0x50 }
  - { offset: 0x1D461, size: 0x8, addend: 0x0, symName: __ZNSt3__19allocatorINS_20__shared_ptr_emplaceI4PageNS0_IS2_EEEEEC1B8ne180100IS2_EERKNS0_IT_EE, symObjAddr: 0x2430, symBinAddr: 0x100007FF4, symSize: 0x34 }
  - { offset: 0x1D49C, size: 0x8, addend: 0x0, symName: __ZNSt3__116allocator_traitsINS_9allocatorINS_20__shared_ptr_emplaceI4PageNS1_IS3_EEEEEEE8allocateB8ne180100ERS6_m, symObjAddr: 0x2464, symBinAddr: 0x100008028, symSize: 0x2C }
  - { offset: 0x1D4CE, size: 0x8, addend: 0x0, symName: __ZNSt3__19allocatorINS_20__shared_ptr_emplaceI4PageNS0_IS2_EEEEEC2B8ne180100IS2_EERKNS0_IT_EE, symObjAddr: 0x2490, symBinAddr: 0x100008054, symSize: 0x30 }
  - { offset: 0x1D509, size: 0x8, addend: 0x0, symName: __ZNSt3__116__non_trivial_ifILb1ENS_9allocatorINS_20__shared_ptr_emplaceI4PageNS1_IS3_EEEEEEEC2B8ne180100Ev, symObjAddr: 0x24C0, symBinAddr: 0x100008084, symSize: 0x14 }
  - { offset: 0x1D531, size: 0x8, addend: 0x0, symName: __ZNSt3__19allocatorINS_20__shared_ptr_emplaceI4PageNS0_IS2_EEEEE8allocateB8ne180100Em, symObjAddr: 0x24D4, symBinAddr: 0x100008098, symSize: 0x5C }
  - { offset: 0x1D56D, size: 0x8, addend: 0x0, symName: __ZNSt3__116allocator_traitsINS_9allocatorINS_20__shared_ptr_emplaceI4PageNS1_IS3_EEEEEEE8max_sizeB8ne180100IS6_vEEmRKS6_, symObjAddr: 0x2530, symBinAddr: 0x1000080F4, symSize: 0x24 }
  - { offset: 0x1D59B, size: 0x8, addend: 0x0, symName: __ZNKSt3__19allocatorINS_20__shared_ptr_emplaceI4PageNS0_IS2_EEEEE8max_sizeB8ne180100Ev, symObjAddr: 0x25B0, symBinAddr: 0x100008118, symSize: 0x18 }
  - { offset: 0x1D5BF, size: 0x8, addend: 0x0, symName: __ZNSt3__120__shared_ptr_emplaceI4PageNS_9allocatorIS1_EEEC2B8ne180100IJRS1_ES3_Li0EEES3_DpOT_, symObjAddr: 0x25EC, symBinAddr: 0x100008130, symSize: 0xBC }
  - { offset: 0x1D640, size: 0x8, addend: 0x0, symName: __ZNSt3__119__shared_weak_countC2B8ne180100El, symObjAddr: 0x26A8, symBinAddr: 0x1000081EC, symSize: 0x4C }
  - { offset: 0x1D676, size: 0x8, addend: 0x0, symName: __ZNSt3__120__shared_ptr_emplaceI4PageNS_9allocatorIS1_EEE8_StorageC1B8ne180100EOS3_, symObjAddr: 0x26F4, symBinAddr: 0x100008238, symSize: 0x34 }
  - { offset: 0x1D6AD, size: 0x8, addend: 0x0, symName: __ZNSt3__120__shared_ptr_emplaceI4PageNS_9allocatorIS1_EEE11__get_allocB8ne180100Ev, symObjAddr: 0x2728, symBinAddr: 0x10000826C, symSize: 0x28 }
  - { offset: 0x1D6D6, size: 0x8, addend: 0x0, symName: __ZNSt3__116allocator_traitsINS_9allocatorI4PageEEE9constructB8ne180100IS2_JRS2_EvEEvRS3_PT_DpOT0_, symObjAddr: 0x2750, symBinAddr: 0x100008294, symSize: 0x34 }
  - { offset: 0x1D72D, size: 0x8, addend: 0x0, symName: __ZNSt3__120__shared_ptr_emplaceI4PageNS_9allocatorIS1_EEE8_StorageD1B8ne180100Ev, symObjAddr: 0x2784, symBinAddr: 0x1000082C8, symSize: 0x2C }
  - { offset: 0x1D755, size: 0x8, addend: 0x0, symName: __ZNSt3__120__shared_ptr_emplaceI4PageNS_9allocatorIS1_EEED1Ev, symObjAddr: 0x27B0, symBinAddr: 0x1000082F4, symSize: 0x2C }
  - { offset: 0x1D77F, size: 0x8, addend: 0x0, symName: __ZNSt3__120__shared_ptr_emplaceI4PageNS_9allocatorIS1_EEED0Ev, symObjAddr: 0x27DC, symBinAddr: 0x100008320, symSize: 0x30 }
  - { offset: 0x1D7A9, size: 0x8, addend: 0x0, symName: __ZNSt3__120__shared_ptr_emplaceI4PageNS_9allocatorIS1_EEE16__on_zero_sharedEv, symObjAddr: 0x280C, symBinAddr: 0x100008350, symSize: 0x24 }
  - { offset: 0x1D7CD, size: 0x8, addend: 0x0, symName: __ZNSt3__120__shared_ptr_emplaceI4PageNS_9allocatorIS1_EEE21__on_zero_shared_weakEv, symObjAddr: 0x2830, symBinAddr: 0x100008374, symSize: 0x5C }
  - { offset: 0x1D80C, size: 0x8, addend: 0x0, symName: __ZNSt3__114__shared_countC2B8ne180100El, symObjAddr: 0x288C, symBinAddr: 0x1000083D0, symSize: 0x30 }
  - { offset: 0x1D842, size: 0x8, addend: 0x0, symName: __ZNSt3__120__shared_ptr_emplaceI4PageNS_9allocatorIS1_EEE8_StorageC2B8ne180100EOS3_, symObjAddr: 0x28BC, symBinAddr: 0x100008400, symSize: 0x30 }
  - { offset: 0x1D879, size: 0x8, addend: 0x0, symName: __ZNSt3__120__shared_ptr_emplaceI4PageNS_9allocatorIS1_EEE8_Storage11__get_allocB8ne180100Ev, symObjAddr: 0x28EC, symBinAddr: 0x100008430, symSize: 0x3C }
  - { offset: 0x1D8CA, size: 0x8, addend: 0x0, symName: __ZNSt3__117__compressed_pairINS_9allocatorI4PageEES2_E16__get_first_baseB8ne180100EPS4_, symObjAddr: 0x2928, symBinAddr: 0x10000846C, symSize: 0x14 }
  - { offset: 0x1D8EC, size: 0x8, addend: 0x0, symName: __ZNSt3__19allocatorI4PageE9constructB8ne180100IS1_JRS1_EEEvPT_DpOT0_, symObjAddr: 0x293C, symBinAddr: 0x100008480, symSize: 0x30 }
  - { offset: 0x1D940, size: 0x8, addend: 0x0, symName: __ZNSt3__120__shared_ptr_emplaceI4PageNS_9allocatorIS1_EEE8_StorageD2B8ne180100Ev, symObjAddr: 0x296C, symBinAddr: 0x1000084B0, symSize: 0x2C }
  - { offset: 0x1D968, size: 0x8, addend: 0x0, symName: __ZNSt3__120__shared_ptr_emplaceI4PageNS_9allocatorIS1_EEED2Ev, symObjAddr: 0x2998, symBinAddr: 0x1000084DC, symSize: 0x48 }
  - { offset: 0x1D992, size: 0x8, addend: 0x0, symName: __ZNSt3__120__shared_ptr_emplaceI4PageNS_9allocatorIS1_EEE21__on_zero_shared_implB8ne180100IS3_Li0EEEvv, symObjAddr: 0x29E0, symBinAddr: 0x100008524, symSize: 0x44 }
  - { offset: 0x1D9E0, size: 0x8, addend: 0x0, symName: __ZNSt3__116allocator_traitsINS_9allocatorI4PageEEE7destroyB8ne180100IS2_vEEvRS3_PT_, symObjAddr: 0x2A24, symBinAddr: 0x100008568, symSize: 0x2C }
  - { offset: 0x1DA1D, size: 0x8, addend: 0x0, symName: __ZNSt3__19allocatorI4PageE7destroyB8ne180100EPS1_, symObjAddr: 0x2A50, symBinAddr: 0x100008594, symSize: 0x28 }
  - { offset: 0x1DA4F, size: 0x8, addend: 0x0, symName: __ZN4PageD1Ev, symObjAddr: 0x2A78, symBinAddr: 0x1000085BC, symSize: 0x2C }
  - { offset: 0x1DA79, size: 0x8, addend: 0x0, symName: __ZN4PageD2Ev, symObjAddr: 0x2AA4, symBinAddr: 0x1000085E8, symSize: 0x2C }
  - { offset: 0x1DAA3, size: 0x8, addend: 0x0, symName: __ZNSt3__116allocator_traitsINS_9allocatorINS_20__shared_ptr_emplaceI4PageNS1_IS3_EEEEEEE10deallocateB8ne180100ERS6_PS5_m, symObjAddr: 0x2EC8, symBinAddr: 0x100008614, symSize: 0x34 }
  - { offset: 0x1DAE4, size: 0x8, addend: 0x0, symName: __ZNSt3__114pointer_traitsIPNS_20__shared_ptr_emplaceI4PageNS_9allocatorIS2_EEEEE10pointer_toB8ne180100ERS5_, symObjAddr: 0x2EFC, symBinAddr: 0x100008648, symSize: 0x14 }
  - { offset: 0x1DB06, size: 0x8, addend: 0x0, symName: __ZNSt3__19allocatorINS_20__shared_ptr_emplaceI4PageNS0_IS2_EEEEE10deallocateB8ne180100EPS4_m, symObjAddr: 0x2F10, symBinAddr: 0x10000865C, symSize: 0x44 }
  - { offset: 0x1DB46, size: 0x8, addend: 0x0, symName: __ZNSt3__110shared_ptrI4PageEC1B8ne180100Ev, symObjAddr: 0x2F54, symBinAddr: 0x1000086A0, symSize: 0x2C }
  - { offset: 0x1DB6E, size: 0x8, addend: 0x0, symName: __ZNSt3__110shared_ptrI4PageE18__enable_weak_thisB8ne180100Ez, symObjAddr: 0x2F80, symBinAddr: 0x1000086CC, symSize: 0x10 }
  - { offset: 0x1DB94, size: 0x8, addend: 0x0, symName: __ZNSt3__110shared_ptrI4PageEC2B8ne180100Ev, symObjAddr: 0x2F90, symBinAddr: 0x1000086DC, symSize: 0x1C }
  - { offset: 0x1DBBC, size: 0x8, addend: 0x0, symName: __ZNSt3__120__shared_ptr_emplaceI4PageNS_9allocatorIS1_EEE8_Storage10__get_elemB8ne180100Ev, symObjAddr: 0x2FAC, symBinAddr: 0x1000086F8, symSize: 0x3C }
  - { offset: 0x1DC0D, size: 0x8, addend: 0x0, symName: __ZNSt3__117__compressed_pairINS_9allocatorI4PageEES2_E17__get_second_baseB8ne180100EPS4_, symObjAddr: 0x2FE8, symBinAddr: 0x100008734, symSize: 0x14 }
  - { offset: 0x1DC2F, size: 0x8, addend: 0x0, symName: __ZNSt3__118__allocation_guardINS_9allocatorINS_20__shared_ptr_emplaceI4PageNS1_IS3_EEEEEEED2B8ne180100Ev, symObjAddr: 0x2FFC, symBinAddr: 0x100008748, symSize: 0x2C }
  - { offset: 0x1DC57, size: 0x8, addend: 0x0, symName: __ZNSt3__118__allocation_guardINS_9allocatorINS_20__shared_ptr_emplaceI4PageNS1_IS3_EEEEEEE9__destroyB8ne180100Ev, symObjAddr: 0x3028, symBinAddr: 0x100008774, symSize: 0x4C }
  - { offset: 0x1DC7B, size: 0x8, addend: 0x0, symName: __ZNSt3__19allocatorI4PageEC2B8ne180100Ev, symObjAddr: 0x3074, symBinAddr: 0x1000087C0, symSize: 0x2C }
  - { offset: 0x1DCA3, size: 0x8, addend: 0x0, symName: __ZNSt3__116__non_trivial_ifILb1ENS_9allocatorI4PageEEEC2B8ne180100Ev, symObjAddr: 0x30A0, symBinAddr: 0x1000087EC, symSize: 0x14 }
  - { offset: 0x1DCCB, size: 0x8, addend: 0x0, symName: __ZNSt3__110shared_ptrI4PageED2B8ne180100Ev, symObjAddr: 0x30B4, symBinAddr: 0x100008800, symSize: 0x54 }
  - { offset: 0x1DCF3, size: 0x8, addend: 0x0, symName: __ZNSt3__119__shared_weak_count16__release_sharedB8ne180100Ev, symObjAddr: 0x3108, symBinAddr: 0x100008854, symSize: 0x3C }
  - { offset: 0x1DD17, size: 0x8, addend: 0x0, symName: __ZNSt3__114__shared_count16__release_sharedB8ne180100Ev, symObjAddr: 0x3144, symBinAddr: 0x100008890, symSize: 0x7C }
  - { offset: 0x1DD3B, size: 0x8, addend: 0x0, symName: __ZNSt3__16vectorINS_10shared_ptrI4PageEENS_9allocatorIS3_EEE9__end_capB8ne180100Ev, symObjAddr: 0x31F0, symBinAddr: 0x10000893C, symSize: 0x28 }
  - { offset: 0x1DD5F, size: 0x8, addend: 0x0, symName: __ZNSt3__16vectorINS_10shared_ptrI4PageEENS_9allocatorIS3_EEE22__construct_one_at_endB8ne180100IJS3_EEEvDpOT_, symObjAddr: 0x3218, symBinAddr: 0x100008964, symSize: 0x90 }
  - { offset: 0x1DDAC, size: 0x8, addend: 0x0, symName: __ZNSt3__16vectorINS_10shared_ptrI4PageEENS_9allocatorIS3_EEE21__push_back_slow_pathIS3_EEPS3_OT_, symObjAddr: 0x32A8, symBinAddr: 0x1000089F4, symSize: 0xE8 }
  - { offset: 0x1DE08, size: 0x8, addend: 0x0, symName: __ZNSt3__117__compressed_pairIPNS_10shared_ptrI4PageEENS_9allocatorIS3_EEE5firstB8ne180100Ev, symObjAddr: 0x3390, symBinAddr: 0x100008ADC, symSize: 0x24 }
  - { offset: 0x1DE2C, size: 0x8, addend: 0x0, symName: __ZNSt3__122__compressed_pair_elemIPNS_10shared_ptrI4PageEELi0ELb0EE5__getB8ne180100Ev, symObjAddr: 0x33B4, symBinAddr: 0x100008B00, symSize: 0x14 }
  - { offset: 0x1DE69, size: 0x8, addend: 0x0, symName: __ZNSt3__16vectorINS_10shared_ptrI4PageEENS_9allocatorIS3_EEE21_ConstructTransactionC1B8ne180100ERS6_m, symObjAddr: 0x33C8, symBinAddr: 0x100008B14, symSize: 0x3C }
  - { offset: 0x1DEAF, size: 0x8, addend: 0x0, symName: __ZNSt3__116allocator_traitsINS_9allocatorINS_10shared_ptrI4PageEEEEE9constructB8ne180100IS4_JS4_EvEEvRS5_PT_DpOT0_, symObjAddr: 0x3404, symBinAddr: 0x100008B50, symSize: 0x34 }
  - { offset: 0x1DF06, size: 0x8, addend: 0x0, symName: __ZNSt3__16vectorINS_10shared_ptrI4PageEENS_9allocatorIS3_EEE21_ConstructTransactionD1B8ne180100Ev, symObjAddr: 0x3438, symBinAddr: 0x100008B84, symSize: 0x2C }
  - { offset: 0x1DF2E, size: 0x8, addend: 0x0, symName: __ZNSt3__16vectorINS_10shared_ptrI4PageEENS_9allocatorIS3_EEE21_ConstructTransactionC2B8ne180100ERS6_m, symObjAddr: 0x3464, symBinAddr: 0x100008BB0, symSize: 0x44 }
  - { offset: 0x1DF74, size: 0x8, addend: 0x0, symName: __ZNSt3__19allocatorINS_10shared_ptrI4PageEEE9constructB8ne180100IS3_JS3_EEEvPT_DpOT0_, symObjAddr: 0x34A8, symBinAddr: 0x100008BF4, symSize: 0x30 }
  - { offset: 0x1DFC8, size: 0x8, addend: 0x0, symName: __ZNSt3__110shared_ptrI4PageEC1B8ne180100EOS2_, symObjAddr: 0x34D8, symBinAddr: 0x100008C24, symSize: 0x34 }
  - { offset: 0x1DFFF, size: 0x8, addend: 0x0, symName: __ZNSt3__110shared_ptrI4PageEC2B8ne180100EOS2_, symObjAddr: 0x350C, symBinAddr: 0x100008C58, symSize: 0x40 }
  - { offset: 0x1E036, size: 0x8, addend: 0x0, symName: __ZNSt3__16vectorINS_10shared_ptrI4PageEENS_9allocatorIS3_EEE21_ConstructTransactionD2B8ne180100Ev, symObjAddr: 0x354C, symBinAddr: 0x100008C98, symSize: 0x20 }
  - { offset: 0x1E05E, size: 0x8, addend: 0x0, symName: __ZNKSt3__16vectorINS_10shared_ptrI4PageEENS_9allocatorIS3_EEE11__recommendB8ne180100Em, symObjAddr: 0x356C, symBinAddr: 0x100008CB8, symSize: 0xB4 }
  - { offset: 0x1E0B2, size: 0x8, addend: 0x0, symName: __ZNSt3__114__split_bufferINS_10shared_ptrI4PageEERNS_9allocatorIS3_EEEC1EmmS6_, symObjAddr: 0x3620, symBinAddr: 0x100008D6C, symSize: 0x44 }
  - { offset: 0x1E107, size: 0x8, addend: 0x0, symName: __ZNSt3__114__split_bufferINS_10shared_ptrI4PageEERNS_9allocatorIS3_EEED1Ev, symObjAddr: 0x3774, symBinAddr: 0x100008EC0, symSize: 0x2C }
  - { offset: 0x1E131, size: 0x8, addend: 0x0, symName: __ZNKSt3__16vectorINS_10shared_ptrI4PageEENS_9allocatorIS3_EEE8max_sizeEv, symObjAddr: 0x37A0, symBinAddr: 0x100008EEC, symSize: 0x60 }
  - { offset: 0x1E157, size: 0x8, addend: 0x0, symName: __ZNKSt3__16vectorINS_10shared_ptrI4PageEENS_9allocatorIS3_EEE20__throw_length_errorB8ne180100Ev, symObjAddr: 0x3800, symBinAddr: 0x100008F4C, symSize: 0x1C }
  - { offset: 0x1E185, size: 0x8, addend: 0x0, symName: __ZNSt3__116allocator_traitsINS_9allocatorINS_10shared_ptrI4PageEEEEE8max_sizeB8ne180100IS5_vEEmRKS5_, symObjAddr: 0x3874, symBinAddr: 0x100008F68, symSize: 0x24 }
  - { offset: 0x1E1B3, size: 0x8, addend: 0x0, symName: __ZNKSt3__16vectorINS_10shared_ptrI4PageEENS_9allocatorIS3_EEE7__allocB8ne180100Ev, symObjAddr: 0x3898, symBinAddr: 0x100008F8C, symSize: 0x28 }
  - { offset: 0x1E1D7, size: 0x8, addend: 0x0, symName: __ZNKSt3__19allocatorINS_10shared_ptrI4PageEEE8max_sizeB8ne180100Ev, symObjAddr: 0x395C, symBinAddr: 0x100008FB4, symSize: 0x14 }
  - { offset: 0x1E1FB, size: 0x8, addend: 0x0, symName: __ZNKSt3__117__compressed_pairIPNS_10shared_ptrI4PageEENS_9allocatorIS3_EEE6secondB8ne180100Ev, symObjAddr: 0x3970, symBinAddr: 0x100008FC8, symSize: 0x24 }
  - { offset: 0x1E21F, size: 0x8, addend: 0x0, symName: __ZNKSt3__122__compressed_pair_elemINS_9allocatorINS_10shared_ptrI4PageEEEELi1ELb1EE5__getB8ne180100Ev, symObjAddr: 0x3994, symBinAddr: 0x100008FEC, symSize: 0x14 }
  - { offset: 0x1E244, size: 0x8, addend: 0x0, symName: __ZNSt3__114__split_bufferINS_10shared_ptrI4PageEERNS_9allocatorIS3_EEEC2EmmS6_, symObjAddr: 0x3AE0, symBinAddr: 0x100009000, symSize: 0xD4 }
  - { offset: 0x1E2B5, size: 0x8, addend: 0x0, symName: __ZNSt3__117__compressed_pairIPNS_10shared_ptrI4PageEERNS_9allocatorIS3_EEEC1B8ne180100IDnS7_EEOT_OT0_, symObjAddr: 0x3BB4, symBinAddr: 0x1000090D4, symSize: 0x3C }
  - { offset: 0x1E30B, size: 0x8, addend: 0x0, symName: __ZNSt3__114__split_bufferINS_10shared_ptrI4PageEERNS_9allocatorIS3_EEE7__allocB8ne180100Ev, symObjAddr: 0x3C30, symBinAddr: 0x100009150, symSize: 0x28 }
  - { offset: 0x1E32F, size: 0x8, addend: 0x0, symName: __ZNSt3__114__split_bufferINS_10shared_ptrI4PageEERNS_9allocatorIS3_EEE9__end_capB8ne180100Ev, symObjAddr: 0x3C58, symBinAddr: 0x100009178, symSize: 0x28 }
  - { offset: 0x1E353, size: 0x8, addend: 0x0, symName: __ZNSt3__117__compressed_pairIPNS_10shared_ptrI4PageEERNS_9allocatorIS3_EEEC2B8ne180100IDnS7_EEOT_OT0_, symObjAddr: 0x3C80, symBinAddr: 0x1000091A0, symSize: 0x48 }
  - { offset: 0x1E3A9, size: 0x8, addend: 0x0, symName: __ZNSt3__122__compressed_pair_elemIRNS_9allocatorINS_10shared_ptrI4PageEEEELi1ELb0EEC2B8ne180100IS6_vEEOT_, symObjAddr: 0x3CC8, symBinAddr: 0x1000091E8, symSize: 0x20 }
  - { offset: 0x1E3EA, size: 0x8, addend: 0x0, symName: __ZNSt3__19allocatorINS_10shared_ptrI4PageEEE8allocateB8ne180100Em, symObjAddr: 0x3CE8, symBinAddr: 0x100009208, symSize: 0x58 }
  - { offset: 0x1E41C, size: 0x8, addend: 0x0, symName: __ZNSt3__117__compressed_pairIPNS_10shared_ptrI4PageEERNS_9allocatorIS3_EEE6secondB8ne180100Ev, symObjAddr: 0x3D40, symBinAddr: 0x100009260, symSize: 0x28 }
  - { offset: 0x1E440, size: 0x8, addend: 0x0, symName: __ZNSt3__122__compressed_pair_elemIRNS_9allocatorINS_10shared_ptrI4PageEEEELi1ELb0EE5__getB8ne180100Ev, symObjAddr: 0x3D68, symBinAddr: 0x100009288, symSize: 0x18 }
  - { offset: 0x1E464, size: 0x8, addend: 0x0, symName: __ZNSt3__117__compressed_pairIPNS_10shared_ptrI4PageEERNS_9allocatorIS3_EEE5firstB8ne180100Ev, symObjAddr: 0x3D80, symBinAddr: 0x1000092A0, symSize: 0x24 }
  - { offset: 0x1E488, size: 0x8, addend: 0x0, symName: __ZNSt3__116reverse_iteratorIPNS_10shared_ptrI4PageEEEC1B8ne180100ES4_, symObjAddr: 0x3ED0, symBinAddr: 0x1000093F0, symSize: 0x34 }
  - { offset: 0x1E4BE, size: 0x8, addend: 0x0, symName: __ZNKSt3__116reverse_iteratorIPNS_10shared_ptrI4PageEEE4baseB8ne180100Ev, symObjAddr: 0x3F04, symBinAddr: 0x100009424, symSize: 0x18 }
  - { offset: 0x1E4E2, size: 0x8, addend: 0x0, symName: __ZNKSt3__16vectorINS_10shared_ptrI4PageEENS_9allocatorIS3_EEE14__annotate_newB8ne180100Em, symObjAddr: 0x3F58, symBinAddr: 0x100009478, symSize: 0x14 }
  - { offset: 0x1E515, size: 0x8, addend: 0x0, symName: __ZNSt3__129_AllocatorDestroyRangeReverseINS_9allocatorINS_10shared_ptrI4PageEEEENS_16reverse_iteratorIPS4_EEEC1B8ne180100ERS5_RS8_SB_, symObjAddr: 0x3FB8, symBinAddr: 0x1000094D8, symSize: 0x44 }
  - { offset: 0x1E56A, size: 0x8, addend: 0x0, symName: __ZNKSt3__116reverse_iteratorIPNS_10shared_ptrI4PageEEEdeB8ne180100Ev, symObjAddr: 0x4068, symBinAddr: 0x100009588, symSize: 0x28 }
  - { offset: 0x1E59C, size: 0x8, addend: 0x0, symName: __ZNSt3__116reverse_iteratorIPNS_10shared_ptrI4PageEEEppB8ne180100Ev, symObjAddr: 0x4090, symBinAddr: 0x1000095B0, symSize: 0x20 }
  - { offset: 0x1E5C0, size: 0x8, addend: 0x0, symName: __ZNSt3__128__exception_guard_exceptionsINS_29_AllocatorDestroyRangeReverseINS_9allocatorINS_10shared_ptrI4PageEEEENS_16reverse_iteratorIPS5_EEEEE10__completeB8ne180100Ev, symObjAddr: 0x40B0, symBinAddr: 0x1000095D0, symSize: 0x1C }
  - { offset: 0x1E5E4, size: 0x8, addend: 0x0, symName: __ZNSt3__128__exception_guard_exceptionsINS_29_AllocatorDestroyRangeReverseINS_9allocatorINS_10shared_ptrI4PageEEEENS_16reverse_iteratorIPS5_EEEEED1B8ne180100Ev, symObjAddr: 0x40CC, symBinAddr: 0x1000095EC, symSize: 0x2C }
  - { offset: 0x1E60C, size: 0x8, addend: 0x0, symName: __ZNSt3__128__exception_guard_exceptionsINS_29_AllocatorDestroyRangeReverseINS_9allocatorINS_10shared_ptrI4PageEEEENS_16reverse_iteratorIPS5_EEEEEC1B8ne180100ESA_, symObjAddr: 0x40F8, symBinAddr: 0x100009618, symSize: 0x34 }
  - { offset: 0x1E643, size: 0x8, addend: 0x0, symName: __ZNSt3__128__exception_guard_exceptionsINS_29_AllocatorDestroyRangeReverseINS_9allocatorINS_10shared_ptrI4PageEEEENS_16reverse_iteratorIPS5_EEEEEC2B8ne180100ESA_, symObjAddr: 0x412C, symBinAddr: 0x10000964C, symSize: 0x30 }
  - { offset: 0x1E67A, size: 0x8, addend: 0x0, symName: __ZNSt3__129_AllocatorDestroyRangeReverseINS_9allocatorINS_10shared_ptrI4PageEEEENS_16reverse_iteratorIPS4_EEEC2B8ne180100ERS5_RS8_SB_, symObjAddr: 0x415C, symBinAddr: 0x10000967C, symSize: 0x38 }
  - { offset: 0x1E6D4, size: 0x8, addend: 0x0, symName: __ZNSt3__119__to_address_helperINS_16reverse_iteratorIPNS_10shared_ptrI4PageEEEEvE6__callB8ne180100ERKS6_, symObjAddr: 0x4194, symBinAddr: 0x1000096B4, symSize: 0x38 }
  - { offset: 0x1E6F6, size: 0x8, addend: 0x0, symName: __ZNKSt3__116reverse_iteratorIPNS_10shared_ptrI4PageEEEptB8ne180100Ev, symObjAddr: 0x41CC, symBinAddr: 0x1000096EC, symSize: 0x24 }
  - { offset: 0x1E71A, size: 0x8, addend: 0x0, symName: __ZNSt3__128__exception_guard_exceptionsINS_29_AllocatorDestroyRangeReverseINS_9allocatorINS_10shared_ptrI4PageEEEENS_16reverse_iteratorIPS5_EEEEED2B8ne180100Ev, symObjAddr: 0x41F0, symBinAddr: 0x100009710, symSize: 0x50 }
  - { offset: 0x1E742, size: 0x8, addend: 0x0, symName: __ZNKSt3__129_AllocatorDestroyRangeReverseINS_9allocatorINS_10shared_ptrI4PageEEEENS_16reverse_iteratorIPS4_EEEclB8ne180100Ev, symObjAddr: 0x4240, symBinAddr: 0x100009760, symSize: 0xB4 }
  - { offset: 0x1E767, size: 0x8, addend: 0x0, symName: __ZNSt3__116reverse_iteratorINS0_IPNS_10shared_ptrI4PageEEEEEC1B8ne180100ES5_, symObjAddr: 0x4364, symBinAddr: 0x100009884, symSize: 0x3C }
  - { offset: 0x1E79D, size: 0x8, addend: 0x0, symName: __ZNSt3__116reverse_iteratorINS0_IPNS_10shared_ptrI4PageEEEEEppB8ne180100Ev, symObjAddr: 0x4424, symBinAddr: 0x100009944, symSize: 0x30 }
  - { offset: 0x1E7C1, size: 0x8, addend: 0x0, symName: __ZNKSt3__116reverse_iteratorINS0_IPNS_10shared_ptrI4PageEEEEE4baseB8ne180100Ev, symObjAddr: 0x4454, symBinAddr: 0x100009974, symSize: 0x24 }
  - { offset: 0x1E7EA, size: 0x8, addend: 0x0, symName: __ZNSt3__119__to_address_helperINS_16reverse_iteratorINS1_IPNS_10shared_ptrI4PageEEEEEEvE6__callB8ne180100ERKS7_, symObjAddr: 0x4478, symBinAddr: 0x100009998, symSize: 0x38 }
  - { offset: 0x1E80C, size: 0x8, addend: 0x0, symName: __ZNKSt3__116reverse_iteratorINS0_IPNS_10shared_ptrI4PageEEEEEptB8ne180100Ev, symObjAddr: 0x44B0, symBinAddr: 0x1000099D0, symSize: 0x24 }
  - { offset: 0x1E830, size: 0x8, addend: 0x0, symName: __ZNKSt3__116reverse_iteratorINS0_IPNS_10shared_ptrI4PageEEEEEdeB8ne180100Ev, symObjAddr: 0x44D4, symBinAddr: 0x1000099F4, symSize: 0x34 }
  - { offset: 0x1E862, size: 0x8, addend: 0x0, symName: __ZNSt3__116reverse_iteratorIPNS_10shared_ptrI4PageEEEmmB8ne180100Ev, symObjAddr: 0x4508, symBinAddr: 0x100009A28, symSize: 0x20 }
  - { offset: 0x1E886, size: 0x8, addend: 0x0, symName: __ZNSt3__116reverse_iteratorINS0_IPNS_10shared_ptrI4PageEEEEEC2B8ne180100ES5_, symObjAddr: 0x4528, symBinAddr: 0x100009A48, symSize: 0x2C }
  - { offset: 0x1E8BC, size: 0x8, addend: 0x0, symName: __ZNSt3__116reverse_iteratorIPNS_10shared_ptrI4PageEEEC2B8ne180100ES4_, symObjAddr: 0x4554, symBinAddr: 0x100009A74, symSize: 0x28 }
  - { offset: 0x1E8F3, size: 0x8, addend: 0x0, symName: __ZNSt3__114__split_bufferINS_10shared_ptrI4PageEERNS_9allocatorIS3_EEED2Ev, symObjAddr: 0x457C, symBinAddr: 0x100009A9C, symSize: 0x8C }
  - { offset: 0x1E91D, size: 0x8, addend: 0x0, symName: __ZNSt3__114__split_bufferINS_10shared_ptrI4PageEERNS_9allocatorIS3_EEE5clearB8ne180100Ev, symObjAddr: 0x4608, symBinAddr: 0x100009B28, symSize: 0x28 }
  - { offset: 0x1E941, size: 0x8, addend: 0x0, symName: __ZNKSt3__114__split_bufferINS_10shared_ptrI4PageEERNS_9allocatorIS3_EEE8capacityB8ne180100Ev, symObjAddr: 0x4630, symBinAddr: 0x100009B50, symSize: 0x40 }
  - { offset: 0x1E965, size: 0x8, addend: 0x0, symName: __ZNSt3__114__split_bufferINS_10shared_ptrI4PageEERNS_9allocatorIS3_EEE17__destruct_at_endB8ne180100EPS3_, symObjAddr: 0x4670, symBinAddr: 0x100009B90, symSize: 0x2C }
  - { offset: 0x1E997, size: 0x8, addend: 0x0, symName: __ZNSt3__114__split_bufferINS_10shared_ptrI4PageEERNS_9allocatorIS3_EEE17__destruct_at_endB8ne180100EPS3_NS_17integral_constantIbLb0EEE, symObjAddr: 0x469C, symBinAddr: 0x100009BBC, symSize: 0x80 }
  - { offset: 0x1E9D5, size: 0x8, addend: 0x0, symName: __ZNKSt3__114__split_bufferINS_10shared_ptrI4PageEERNS_9allocatorIS3_EEE9__end_capB8ne180100Ev, symObjAddr: 0x471C, symBinAddr: 0x100009C3C, symSize: 0x28 }
  - { offset: 0x1E9F9, size: 0x8, addend: 0x0, symName: __ZNKSt3__117__compressed_pairIPNS_10shared_ptrI4PageEERNS_9allocatorIS3_EEE5firstB8ne180100Ev, symObjAddr: 0x4744, symBinAddr: 0x100009C64, symSize: 0x24 }
  - { offset: 0x1EA1D, size: 0x8, addend: 0x0, symName: __ZNSt3__112basic_stringIcNS_11char_traitsIcEENS_9allocatorIcEEEC2B8ne180100ILi0EEEPKc, symObjAddr: 0x4768, symBinAddr: 0x100009C88, symSize: 0x58 }
  - { offset: 0x1EA5A, size: 0x8, addend: 0x0, symName: __ZNSt3__19basic_iosIcNS_11char_traitsIcEEEC2B8ne180100Ev, symObjAddr: 0x47C0, symBinAddr: 0x100009CE0, symSize: 0x3C }
  - { offset: 0x1EA82, size: 0x8, addend: 0x0, symName: __ZNSt3__113basic_istreamIcNS_11char_traitsIcEEEC2B8ne180100EPNS_15basic_streambufIcS2_EE, symObjAddr: 0x47FC, symBinAddr: 0x100009D1C, symSize: 0x64 }
  - { offset: 0x1EAC4, size: 0x8, addend: 0x0, symName: __ZNSt3__113basic_filebufIcNS_11char_traitsIcEEE4openERKNS_12basic_stringIcS2_NS_9allocatorIcEEEEj, symObjAddr: 0x4860, symBinAddr: 0x100009D80, symSize: 0x44 }
  - { offset: 0x1EB08, size: 0x8, addend: 0x0, symName: __ZNSt3__18ios_baseC2B8ne180100Ev, symObjAddr: 0x48A4, symBinAddr: 0x100009DC4, symSize: 0x24 }
  - { offset: 0x1EB30, size: 0x8, addend: 0x0, symName: __ZNSt3__19basic_iosIcNS_11char_traitsIcEEE4initB8ne180100EPNS_15basic_streambufIcS2_EE, symObjAddr: 0x48C8, symBinAddr: 0x100009DE8, symSize: 0x44 }
  - { offset: 0x1EB65, size: 0x8, addend: 0x0, symName: __ZNKSt3__112basic_stringIcNS_11char_traitsIcEENS_9allocatorIcEEE5c_strB8ne180100Ev, symObjAddr: 0x490C, symBinAddr: 0x100009E2C, symSize: 0x24 }
  - { offset: 0x1EB89, size: 0x8, addend: 0x0, symName: __ZNSt3__120__shared_ptr_emplaceI4PageNS_9allocatorIS1_EEEC1B8ne180100IJES3_Li0EEES3_DpOT_, symObjAddr: 0x4AB4, symBinAddr: 0x100009EE0, symSize: 0x2C }
  - { offset: 0x1EBD4, size: 0x8, addend: 0x0, symName: __ZNSt3__120__shared_ptr_emplaceI4PageNS_9allocatorIS1_EEEC2B8ne180100IJES3_Li0EEES3_DpOT_, symObjAddr: 0x4AE0, symBinAddr: 0x100009F0C, symSize: 0xB4 }
  - { offset: 0x1EC40, size: 0x8, addend: 0x0, symName: __ZNSt3__116allocator_traitsINS_9allocatorI4PageEEE9constructB8ne180100IS2_JEvEEvRS3_PT_DpOT0_, symObjAddr: 0x4B94, symBinAddr: 0x100009FC0, symSize: 0x2C }
  - { offset: 0x1EC82, size: 0x8, addend: 0x0, symName: __ZNSt3__19allocatorI4PageE9constructB8ne180100IS1_JEEEvPT_DpOT0_, symObjAddr: 0x4BC0, symBinAddr: 0x100009FEC, symSize: 0x28 }
  - { offset: 0x1ECE0, size: 0x8, addend: 0x0, symName: __ZNKSt3__113basic_istreamIcNS_11char_traitsIcEEE6sentrycvbB8ne180100Ev, symObjAddr: 0x4E20, symBinAddr: 0x10000A24C, symSize: 0x1C }
  - { offset: 0x1ED04, size: 0x8, addend: 0x0, symName: __ZNSt3__112basic_stringIcNS_11char_traitsIcEENS_9allocatorIcEEE5clearB8ne180100Ev, symObjAddr: 0x4E3C, symBinAddr: 0x10000A268, symSize: 0x94 }
  - { offset: 0x1ED39, size: 0x8, addend: 0x0, symName: __ZNSt3__115basic_streambufIcNS_11char_traitsIcEEE6sbumpcB8ne180100Ev, symObjAddr: 0x4ED0, symBinAddr: 0x10000A2FC, symSize: 0x78 }
  - { offset: 0x1ED5D, size: 0x8, addend: 0x0, symName: __ZNSt3__111char_traitsIcE12to_char_typeB8ne180100Ei, symObjAddr: 0x4F48, symBinAddr: 0x10000A374, symSize: 0x18 }
  - { offset: 0x1ED80, size: 0x8, addend: 0x0, symName: __ZNSt3__111char_traitsIcE2eqEcc, symObjAddr: 0x4F60, symBinAddr: 0x10000A38C, symSize: 0x28 }
  - { offset: 0x1EDB0, size: 0x8, addend: 0x0, symName: __ZNKSt3__112basic_stringIcNS_11char_traitsIcEENS_9allocatorIcEEE8max_sizeB8ne180100Ev, symObjAddr: 0x4FDC, symBinAddr: 0x10000A3B4, symSize: 0xAC }
  - { offset: 0x1EE00, size: 0x8, addend: 0x0, symName: __ZNSt3__18ios_base18__setstate_nothrowB8ne180100Ej, symObjAddr: 0x5088, symBinAddr: 0x10000A460, symSize: 0x64 }
  - { offset: 0x1EE33, size: 0x8, addend: 0x0, symName: __ZNKSt3__19basic_iosIcNS_11char_traitsIcEEE10exceptionsB8ne180100Ev, symObjAddr: 0x50EC, symBinAddr: 0x10000A4C4, symSize: 0x24 }
  - { offset: 0x1EE57, size: 0x8, addend: 0x0, symName: __ZNSt3__112basic_stringIcNS_11char_traitsIcEENS_9allocatorIcEEE15__set_long_sizeB8ne180100Em, symObjAddr: 0x515C, symBinAddr: 0x10000A4E8, symSize: 0x38 }
  - { offset: 0x1EE8A, size: 0x8, addend: 0x0, symName: __ZNSt3__111char_traitsIcE11to_int_typeB8ne180100Ec, symObjAddr: 0x5294, symBinAddr: 0x10000A520, symSize: 0x14 }
  - { offset: 0x1EEB7, size: 0x8, addend: 0x0, symName: __ZNSt3__116allocator_traitsINS_9allocatorIcEEE8max_sizeB8ne180100IS2_vEEmRKS2_, symObjAddr: 0x5304, symBinAddr: 0x10000A534, symSize: 0x24 }
  - { offset: 0x1EEE5, size: 0x8, addend: 0x0, symName: __ZNKSt3__112basic_stringIcNS_11char_traitsIcEENS_9allocatorIcEEE7__allocB8ne180100Ev, symObjAddr: 0x5328, symBinAddr: 0x10000A558, symSize: 0x24 }
  - { offset: 0x1EF0A, size: 0x8, addend: 0x0, symName: __ZNSt3__114numeric_limitsImE3maxB8ne180100Ev, symObjAddr: 0x534C, symBinAddr: 0x10000A57C, symSize: 0x14 }
  - { offset: 0x1EF1D, size: 0x8, addend: 0x0, symName: __ZNKSt3__19allocatorIcE8max_sizeB8ne180100Ev, symObjAddr: 0x5360, symBinAddr: 0x10000A590, symSize: 0x14 }
  - { offset: 0x1EF41, size: 0x8, addend: 0x0, symName: __ZNKSt3__117__compressed_pairINS_12basic_stringIcNS_11char_traitsIcEENS_9allocatorIcEEE5__repES5_E6secondB8ne180100Ev, symObjAddr: 0x5374, symBinAddr: 0x10000A5A4, symSize: 0x24 }
  - { offset: 0x1EF65, size: 0x8, addend: 0x0, symName: __ZNKSt3__122__compressed_pair_elemINS_9allocatorIcEELi1ELb1EE5__getB8ne180100Ev, symObjAddr: 0x5398, symBinAddr: 0x10000A5C8, symSize: 0x14 }
  - { offset: 0x1EF89, size: 0x8, addend: 0x0, symName: __ZNSt3__123__libcpp_numeric_limitsImLb1EE3maxB8ne180100Ev, symObjAddr: 0x53AC, symBinAddr: 0x10000A5DC, symSize: 0x8 }
  - { offset: 0x1EF9C, size: 0x8, addend: 0x0, symName: __ZNKSt3__18ios_base10exceptionsB8ne180100Ev, symObjAddr: 0x53B4, symBinAddr: 0x10000A5E4, symSize: 0x18 }
  - { offset: 0x1EFC2, size: 0x8, addend: 0x0, symName: __ZNKSt3__19basic_iosIcNS_11char_traitsIcEEE4failB8ne180100Ev, symObjAddr: 0x53CC, symBinAddr: 0x10000A5FC, symSize: 0x28 }
  - { offset: 0x1EFE6, size: 0x8, addend: 0x0, symName: __ZNKSt3__18ios_base4failB8ne180100Ev, symObjAddr: 0x53F4, symBinAddr: 0x10000A624, symSize: 0x28 }
  - { offset: 0x1F00C, size: 0x8, addend: 0x0, symName: __ZNSt3__19allocatorIcEC1B8ne180100Ev, symObjAddr: 0x541C, symBinAddr: 0x10000A64C, symSize: 0x2C }
  - { offset: 0x261A1, size: 0x8, addend: 0x0, symName: __ZN3MemC2Ev, symObjAddr: 0x0, symBinAddr: 0x10000A678, symSize: 0xD0 }
  - { offset: 0x261E7, size: 0x8, addend: 0x0, symName: __ZN3MemC1Ev, symObjAddr: 0x21C, symBinAddr: 0x10000A748, symSize: 0x2C }
  - { offset: 0x26212, size: 0x8, addend: 0x0, symName: __ZN3MemD2Ev, symObjAddr: 0x248, symBinAddr: 0x10000A774, symSize: 0x98 }
  - { offset: 0x2627D, size: 0x8, addend: 0x0, symName: __ZN3MemD1Ev, symObjAddr: 0x3D4, symBinAddr: 0x10000A80C, symSize: 0x2C }
  - { offset: 0x262A6, size: 0x8, addend: 0x0, symName: __ZN3Mem5resetEv, symObjAddr: 0x400, symBinAddr: 0x10000A838, symSize: 0x7C }
  - { offset: 0x2631D, size: 0x8, addend: 0x0, symName: __ZN3Mem8mem_pageEj, symObjAddr: 0x47C, symBinAddr: 0x10000A8B4, symSize: 0x34 }
  - { offset: 0x26351, size: 0x8, addend: 0x0, symName: __ZN3Mem12loadFromDiskEP4Diskjj, symObjAddr: 0x4EC, symBinAddr: 0x10000A8E8, symSize: 0x70 }
  - { offset: 0x263AF, size: 0x8, addend: 0x0, symName: __ZN3Mem11flushToDiskEP4Diskj, symObjAddr: 0x55C, symBinAddr: 0x10000A958, symSize: 0x80 }
  - { offset: 0x263FF, size: 0x8, addend: 0x0, symName: __ZN3Mem5printEv, symObjAddr: 0x5DC, symBinAddr: 0x10000A9D8, symSize: 0xC0 }
  - { offset: 0x26442, size: 0x8, addend: 0x0, symName: __ZNK3Mem17loadFromDiskTimesEv, symObjAddr: 0x798, symBinAddr: 0x10000AA98, symSize: 0x18 }
  - { offset: 0x26469, size: 0x8, addend: 0x0, symName: __ZNK3Mem16flushToDiskTimesEv, symObjAddr: 0x7B0, symBinAddr: 0x10000AAB0, symSize: 0x18 }
  - { offset: 0x2D3B0, size: 0x8, addend: 0x0, symName: __ZNSt3__122__make_exception_guardB8ne180100INS_6vectorIjNS_9allocatorIjEEE16__destroy_vectorEEENS_28__exception_guard_exceptionsIT_EES7_, symObjAddr: 0x680, symBinAddr: 0x10000B138, symSize: 0x40 }
  - { offset: 0x2D3E5, size: 0x8, addend: 0x0, symName: __ZNSt3__119__allocate_at_leastB8ne180100INS_9allocatorIjEEEENS_19__allocation_resultINS_16allocator_traitsIT_E7pointerEEERS5_m, symObjAddr: 0x968, symBinAddr: 0x10000B420, symSize: 0x40 }
  - { offset: 0x2D428, size: 0x8, addend: 0x0, symName: __ZNSt3__130__uninitialized_allocator_copyB8ne180100INS_9allocatorIjEEPjS3_S3_EET2_RT_T0_T1_S4_, symObjAddr: 0xD74, symBinAddr: 0x10000B600, symSize: 0x80 }
  - { offset: 0x2D4C5, size: 0x8, addend: 0x0, symName: __ZNSt3__114__unwrap_rangeB8ne180100IPjS1_EENS_4pairIT0_S3_EET_S5_, symObjAddr: 0xE64, symBinAddr: 0x10000B6F0, symSize: 0x60 }
  - { offset: 0x2D511, size: 0x8, addend: 0x0, symName: __ZNSt3__135__uninitialized_allocator_copy_implB8ne180100INS_9allocatorIjEEjjjLPv0EEEPT2_RT_PT0_S9_S5_, symObjAddr: 0xEC4, symBinAddr: 0x10000B750, symSize: 0x38 }
  - { offset: 0x2D592, size: 0x8, addend: 0x0, symName: __ZNSt3__113__unwrap_iterB8ne180100IPjNS_18__unwrap_iter_implIS1_Lb1EEELi0EEEDTclsrT0_8__unwrapclsr3stdE7declvalIT_EEEES5_, symObjAddr: 0xEFC, symBinAddr: 0x10000B788, symSize: 0x24 }
  - { offset: 0x2D5D6, size: 0x8, addend: 0x0, symName: __ZNSt3__113__rewrap_iterB8ne180100IPjS1_NS_18__unwrap_iter_implIS1_Lb1EEEEET_S4_T0_, symObjAddr: 0xF20, symBinAddr: 0x10000B7AC, symSize: 0x3C }
  - { offset: 0x2D62B, size: 0x8, addend: 0x0, symName: __ZNSt3__19make_pairB8ne180100IPjS1_EENS_4pairINS_18__unwrap_ref_decayIT_E4typeENS3_IT0_E4typeEEEOS4_OS7_, symObjAddr: 0xF5C, symBinAddr: 0x10000B7E8, symSize: 0x38 }
  - { offset: 0x2D77D, size: 0x8, addend: 0x0, symName: __ZNSt3__14copyB8ne180100IPjS1_EET0_T_S3_S2_, symObjAddr: 0x1004, symBinAddr: 0x10000B890, symSize: 0x40 }
  - { offset: 0x2D7D7, size: 0x8, addend: 0x0, symName: __ZNSt3__16__copyB8ne180100INS_17_ClassicAlgPolicyEPjS2_S2_EENS_4pairIT0_T2_EES4_T1_S5_, symObjAddr: 0x1044, symBinAddr: 0x10000B8D0, symSize: 0x44 }
  - { offset: 0x2D843, size: 0x8, addend: 0x0, symName: __ZNSt3__123__dispatch_copy_or_moveB8ne180100INS_17_ClassicAlgPolicyENS_11__copy_loopIS1_EENS_14__copy_trivialEPjS5_S5_EENS_4pairIT2_T4_EES7_T3_S8_, symObjAddr: 0x1088, symBinAddr: 0x10000B914, symSize: 0x44 }
  - { offset: 0x2D8C1, size: 0x8, addend: 0x0, symName: __ZNSt3__121__unwrap_and_dispatchB8ne180100INS_10__overloadINS_11__copy_loopINS_17_ClassicAlgPolicyEEENS_14__copy_trivialEEEPjS7_S7_Li0EEENS_4pairIT0_T2_EES9_T1_SA_, symObjAddr: 0x10CC, symBinAddr: 0x10000B958, symSize: 0xB4 }
  - { offset: 0x2D995, size: 0x8, addend: 0x0, symName: __ZNSt3__114__rewrap_rangeB8ne180100IPjS1_EET_S2_T0_, symObjAddr: 0x11C8, symBinAddr: 0x10000BA54, symSize: 0x2C }
  - { offset: 0x2D9E1, size: 0x8, addend: 0x0, symName: __ZNSt3__119__copy_trivial_implB8ne180100IjjEENS_4pairIPT_PT0_EES3_S3_S5_, symObjAddr: 0x11F4, symBinAddr: 0x10000BA80, symSize: 0x80 }
  - { offset: 0x2DA49, size: 0x8, addend: 0x0, symName: __ZNSt3__119__constexpr_memmoveB8ne180100IjjLi0EEEPT_S2_PT0_NS_15__element_countE, symObjAddr: 0x1274, symBinAddr: 0x10000BB00, symSize: 0x64 }
  - { offset: 0x2DAB7, size: 0x8, addend: 0x0, symName: __ZNSt3__19make_pairB8ne180100IRPjS1_EENS_4pairINS_18__unwrap_ref_decayIT_E4typeENS4_IT0_E4typeEEEOS5_OS8_, symObjAddr: 0x12D8, symBinAddr: 0x10000BB64, symSize: 0x38 }
  - { offset: 0x2DB59, size: 0x8, addend: 0x0, symName: __ZNSt3__112__to_addressB8ne180100IjEEPT_S2_, symObjAddr: 0x13A4, symBinAddr: 0x10000BC30, symSize: 0x14 }
  - { offset: 0x2DB8E, size: 0x8, addend: 0x0, symName: __ZNSt3__142__uninitialized_allocator_move_if_noexceptB8ne180100INS_9allocatorIjEENS_16reverse_iteratorIPjEES5_jvEET1_RT_T0_S9_S6_, symObjAddr: 0x1E50, symBinAddr: 0x10000C5E0, symSize: 0x78 }
  - { offset: 0x2DC0C, size: 0x8, addend: 0x0, symName: __ZNSt3__14swapB8ne180100IPjEENS_9enable_ifIXaasr21is_move_constructibleIT_EE5valuesr18is_move_assignableIS3_EE5valueEvE4typeERS3_S6_, symObjAddr: 0x1F14, symBinAddr: 0x10000C6A4, symSize: 0x3C }
  - { offset: 0x2DC5D, size: 0x8, addend: 0x0, symName: __ZNSt3__14moveB8ne180100INS_16reverse_iteratorIPjEES3_EET0_T_S5_S4_, symObjAddr: 0x1F50, symBinAddr: 0x10000C6E0, symSize: 0x78 }
  - { offset: 0x2DCB7, size: 0x8, addend: 0x0, symName: __ZNSt3__16__moveB8ne180100INS_17_ClassicAlgPolicyENS_16reverse_iteratorIPjEES4_S4_EENS_4pairIT0_T2_EES6_T1_S7_, symObjAddr: 0x1FC8, symBinAddr: 0x10000C758, symSize: 0x64 }
  - { offset: 0x2DD23, size: 0x8, addend: 0x0, symName: __ZNSt3__123__dispatch_copy_or_moveB8ne180100INS_17_ClassicAlgPolicyENS_11__move_loopIS1_EENS_14__move_trivialENS_16reverse_iteratorIPjEES7_S7_EENS_4pairIT2_T4_EES9_T3_SA_, symObjAddr: 0x202C, symBinAddr: 0x10000C7BC, symSize: 0x64 }
  - { offset: 0x2DDA1, size: 0x8, addend: 0x0, symName: __ZNSt3__121__unwrap_and_dispatchB8ne180100INS_10__overloadINS_11__move_loopINS_17_ClassicAlgPolicyEEENS_14__move_trivialEEENS_16reverse_iteratorIPjEES9_S9_Li0EEENS_4pairIT0_T2_EESB_T1_SC_, symObjAddr: 0x2090, symBinAddr: 0x10000C820, symSize: 0x12C }
  - { offset: 0x2DE31, size: 0x8, addend: 0x0, symName: __ZNSt3__114__unwrap_rangeB8ne180100INS_16reverse_iteratorIPjEES3_EENS_4pairIT0_S5_EET_S7_, symObjAddr: 0x21BC, symBinAddr: 0x10000C94C, symSize: 0x84 }
  - { offset: 0x2DFAC, size: 0x8, addend: 0x0, symName: __ZNSt3__113__unwrap_iterB8ne180100INS_16reverse_iteratorIPjEENS_18__unwrap_iter_implIS3_Lb0EEELi0EEEDTclsrT0_8__unwrapclsr3stdE7declvalIT_EEEES7_, symObjAddr: 0x22E0, symBinAddr: 0x10000CA70, symSize: 0x44 }
  - { offset: 0x2DFF0, size: 0x8, addend: 0x0, symName: __ZNSt3__19make_pairB8ne180100INS_16reverse_iteratorIPjEES3_EENS_4pairINS_18__unwrap_ref_decayIT_E4typeENS5_IT0_E4typeEEEOS6_OS9_, symObjAddr: 0x2324, symBinAddr: 0x10000CAB4, symSize: 0x38 }
  - { offset: 0x2E03F, size: 0x8, addend: 0x0, symName: __ZNSt3__114__rewrap_rangeB8ne180100INS_16reverse_iteratorIPjEES3_EET_S4_T0_, symObjAddr: 0x235C, symBinAddr: 0x10000CAEC, symSize: 0x5C }
  - { offset: 0x2E08B, size: 0x8, addend: 0x0, symName: __ZNSt3__113__rewrap_iterB8ne180100INS_16reverse_iteratorIPjEES3_NS_18__unwrap_iter_implIS3_Lb0EEEEET_S6_T0_, symObjAddr: 0x23B8, symBinAddr: 0x10000CB48, symSize: 0x74 }
  - { offset: 0x2E0E0, size: 0x8, addend: 0x0, symName: __ZNSt3__1neB8ne180100IPjS1_EEbRKNS_16reverse_iteratorIT_EERKNS2_IT0_EE, symObjAddr: 0x242C, symBinAddr: 0x10000CBBC, symSize: 0x48 }
  - { offset: 0x2F0F8, size: 0x8, addend: 0x0, symName: __ZNSt3__16vectorIjNS_9allocatorIjEEE26__swap_out_circular_bufferERNS_14__split_bufferIjRS2_EE, symObjAddr: 0x1A68, symBinAddr: 0x10000C278, symSize: 0x110 }
  - { offset: 0x2F5F6, size: 0x8, addend: 0x0, symName: __ZN6BucketC2EP4Disk, symObjAddr: 0x0, symBinAddr: 0x10000AAC8, symSize: 0x50 }
  - { offset: 0x2F62E, size: 0x8, addend: 0x0, symName: __ZNSt3__16vectorIjNS_9allocatorIjEEEC1B8ne180100Ev, symObjAddr: 0x50, symBinAddr: 0x10000AB18, symSize: 0x2C }
  - { offset: 0x2F656, size: 0x8, addend: 0x0, symName: __ZN6BucketC1EP4Disk, symObjAddr: 0x7C, symBinAddr: 0x10000AB44, symSize: 0x34 }
  - { offset: 0x2F68E, size: 0x8, addend: 0x0, symName: __ZN6Bucket12get_left_relEv, symObjAddr: 0xB0, symBinAddr: 0x10000AB78, symSize: 0x3C }
  - { offset: 0x2F6B5, size: 0x8, addend: 0x0, symName: __ZNSt3__16vectorIjNS_9allocatorIjEEEC1ERKS3_, symObjAddr: 0xEC, symBinAddr: 0x10000ABB4, symSize: 0x34 }
  - { offset: 0x2F6EE, size: 0x8, addend: 0x0, symName: __ZN6Bucket13get_right_relEv, symObjAddr: 0x120, symBinAddr: 0x10000ABE8, symSize: 0x3C }
  - { offset: 0x2F714, size: 0x8, addend: 0x0, symName: __ZN6Bucket17add_left_rel_pageEj, symObjAddr: 0x15C, symBinAddr: 0x10000AC24, symSize: 0x5C }
  - { offset: 0x2F748, size: 0x8, addend: 0x0, symName: __ZNSt3__16vectorIjNS_9allocatorIjEEE9push_backB8ne180100ERKj, symObjAddr: 0x1B8, symBinAddr: 0x10000AC80, symSize: 0x90 }
  - { offset: 0x2F78C, size: 0x8, addend: 0x0, symName: __ZN6Bucket18add_right_rel_pageEj, symObjAddr: 0x248, symBinAddr: 0x10000AD10, symSize: 0x5C }
  - { offset: 0x2F7C0, size: 0x8, addend: 0x0, symName: __ZNSt3__16vectorIjNS_9allocatorIjEEEC2B8ne180100Ev, symObjAddr: 0x2A4, symBinAddr: 0x10000AD6C, symSize: 0x4C }
  - { offset: 0x2F7F7, size: 0x8, addend: 0x0, symName: __ZNSt3__117__compressed_pairIPjNS_9allocatorIjEEEC1B8ne180100IDnNS_18__default_init_tagEEEOT_OT0_, symObjAddr: 0x2F0, symBinAddr: 0x10000ADB8, symSize: 0x3C }
  - { offset: 0x2F84D, size: 0x8, addend: 0x0, symName: __ZNSt3__117__compressed_pairIPjNS_9allocatorIjEEEC2B8ne180100IDnNS_18__default_init_tagEEEOT_OT0_, symObjAddr: 0x33C, symBinAddr: 0x10000ADF4, symSize: 0x40 }
  - { offset: 0x2F8A3, size: 0x8, addend: 0x0, symName: __ZNSt3__122__compressed_pair_elemIPjLi0ELb0EEC2B8ne180100IDnvEEOT_, symObjAddr: 0x37C, symBinAddr: 0x10000AE34, symSize: 0x1C }
  - { offset: 0x2F8E4, size: 0x8, addend: 0x0, symName: __ZNSt3__122__compressed_pair_elemINS_9allocatorIjEELi1ELb1EEC2B8ne180100ENS_18__default_init_tagE, symObjAddr: 0x398, symBinAddr: 0x10000AE50, symSize: 0x2C }
  - { offset: 0x2F916, size: 0x8, addend: 0x0, symName: __ZNSt3__19allocatorIjEC2B8ne180100Ev, symObjAddr: 0x3C4, symBinAddr: 0x10000AE7C, symSize: 0x2C }
  - { offset: 0x2F93E, size: 0x8, addend: 0x0, symName: __ZNSt3__116__non_trivial_ifILb1ENS_9allocatorIjEEEC2B8ne180100Ev, symObjAddr: 0x3F0, symBinAddr: 0x10000AEA8, symSize: 0x14 }
  - { offset: 0x2F967, size: 0x8, addend: 0x0, symName: __ZNSt3__16vectorIjNS_9allocatorIjEEEC2ERKS3_, symObjAddr: 0x404, symBinAddr: 0x10000AEBC, symSize: 0x94 }
  - { offset: 0x2F9AA, size: 0x8, addend: 0x0, symName: __ZNSt3__116allocator_traitsINS_9allocatorIjEEE37select_on_container_copy_constructionB8ne180100IS2_vvEES2_RKS2_, symObjAddr: 0x498, symBinAddr: 0x10000AF50, symSize: 0x10 }
  - { offset: 0x2F9DA, size: 0x8, addend: 0x0, symName: __ZNKSt3__16vectorIjNS_9allocatorIjEEE7__allocB8ne180100Ev, symObjAddr: 0x4A8, symBinAddr: 0x10000AF60, symSize: 0x28 }
  - { offset: 0x2FA03, size: 0x8, addend: 0x0, symName: __ZNSt3__117__compressed_pairIPjNS_9allocatorIjEEEC1B8ne180100IDnS3_EEOT_OT0_, symObjAddr: 0x4D0, symBinAddr: 0x10000AF88, symSize: 0x3C }
  - { offset: 0x2FA59, size: 0x8, addend: 0x0, symName: __ZNSt3__16vectorIjNS_9allocatorIjEEE16__init_with_sizeB8ne180100IPjS5_EEvT_T0_m, symObjAddr: 0x50C, symBinAddr: 0x10000AFC4, symSize: 0xB8 }
  - { offset: 0x2FACB, size: 0x8, addend: 0x0, symName: __ZNKSt3__16vectorIjNS_9allocatorIjEEE4sizeB8ne180100Ev, symObjAddr: 0x5C4, symBinAddr: 0x10000B07C, symSize: 0x28 }
  - { offset: 0x2FAEF, size: 0x8, addend: 0x0, symName: __ZNKSt3__117__compressed_pairIPjNS_9allocatorIjEEE6secondB8ne180100Ev, symObjAddr: 0x5EC, symBinAddr: 0x10000B0A4, symSize: 0x24 }
  - { offset: 0x2FB13, size: 0x8, addend: 0x0, symName: __ZNKSt3__122__compressed_pair_elemINS_9allocatorIjEELi1ELb1EE5__getB8ne180100Ev, symObjAddr: 0x610, symBinAddr: 0x10000B0C8, symSize: 0x14 }
  - { offset: 0x2FB37, size: 0x8, addend: 0x0, symName: __ZNSt3__117__compressed_pairIPjNS_9allocatorIjEEEC2B8ne180100IDnS3_EEOT_OT0_, symObjAddr: 0x624, symBinAddr: 0x10000B0DC, symSize: 0x44 }
  - { offset: 0x2FB8D, size: 0x8, addend: 0x0, symName: __ZNSt3__122__compressed_pair_elemINS_9allocatorIjEELi1ELb1EEC2B8ne180100IS2_vEEOT_, symObjAddr: 0x668, symBinAddr: 0x10000B120, symSize: 0x18 }
  - { offset: 0x2FBCE, size: 0x8, addend: 0x0, symName: __ZNSt3__16vectorIjNS_9allocatorIjEEE16__destroy_vectorC1B8ne180100ERS3_, symObjAddr: 0x6C0, symBinAddr: 0x10000B178, symSize: 0x34 }
  - { offset: 0x2FC05, size: 0x8, addend: 0x0, symName: __ZNSt3__16vectorIjNS_9allocatorIjEEE11__vallocateB8ne180100Em, symObjAddr: 0x6F4, symBinAddr: 0x10000B1AC, symSize: 0xAC }
  - { offset: 0x2FC47, size: 0x8, addend: 0x0, symName: __ZNSt3__16vectorIjNS_9allocatorIjEEE18__construct_at_endIPjS5_EEvT_T0_m, symObjAddr: 0x7A0, symBinAddr: 0x10000B258, symSize: 0x8C }
  - { offset: 0x2FCBB, size: 0x8, addend: 0x0, symName: __ZNSt3__128__exception_guard_exceptionsINS_6vectorIjNS_9allocatorIjEEE16__destroy_vectorEE10__completeB8ne180100Ev, symObjAddr: 0x82C, symBinAddr: 0x10000B2E4, symSize: 0x1C }
  - { offset: 0x2FCDF, size: 0x8, addend: 0x0, symName: __ZNSt3__128__exception_guard_exceptionsINS_6vectorIjNS_9allocatorIjEEE16__destroy_vectorEED1B8ne180100Ev, symObjAddr: 0x848, symBinAddr: 0x10000B300, symSize: 0x2C }
  - { offset: 0x2FD07, size: 0x8, addend: 0x0, symName: __ZNSt3__128__exception_guard_exceptionsINS_6vectorIjNS_9allocatorIjEEE16__destroy_vectorEEC1B8ne180100ES5_, symObjAddr: 0x874, symBinAddr: 0x10000B32C, symSize: 0x34 }
  - { offset: 0x2FD3D, size: 0x8, addend: 0x0, symName: __ZNSt3__128__exception_guard_exceptionsINS_6vectorIjNS_9allocatorIjEEE16__destroy_vectorEEC2B8ne180100ES5_, symObjAddr: 0x8A8, symBinAddr: 0x10000B360, symSize: 0x24 }
  - { offset: 0x2FD73, size: 0x8, addend: 0x0, symName: __ZNSt3__16vectorIjNS_9allocatorIjEEE16__destroy_vectorC2B8ne180100ERS3_, symObjAddr: 0x8CC, symBinAddr: 0x10000B384, symSize: 0x20 }
  - { offset: 0x2FDAA, size: 0x8, addend: 0x0, symName: __ZNKSt3__16vectorIjNS_9allocatorIjEEE8max_sizeEv, symObjAddr: 0x8EC, symBinAddr: 0x10000B3A4, symSize: 0x60 }
  - { offset: 0x2FDD0, size: 0x8, addend: 0x0, symName: __ZNKSt3__16vectorIjNS_9allocatorIjEEE20__throw_length_errorB8ne180100Ev, symObjAddr: 0x94C, symBinAddr: 0x10000B404, symSize: 0x1C }
  - { offset: 0x2FDF4, size: 0x8, addend: 0x0, symName: __ZNSt3__16vectorIjNS_9allocatorIjEEE7__allocB8ne180100Ev, symObjAddr: 0x9A8, symBinAddr: 0x10000B460, symSize: 0x28 }
  - { offset: 0x2FE18, size: 0x8, addend: 0x0, symName: __ZNSt3__16vectorIjNS_9allocatorIjEEE9__end_capB8ne180100Ev, symObjAddr: 0x9D0, symBinAddr: 0x10000B488, symSize: 0x28 }
  - { offset: 0x2FE3C, size: 0x8, addend: 0x0, symName: __ZNKSt3__16vectorIjNS_9allocatorIjEEE14__annotate_newB8ne180100Em, symObjAddr: 0x9F8, symBinAddr: 0x10000B4B0, symSize: 0x14 }
  - { offset: 0x2FE6F, size: 0x8, addend: 0x0, symName: __ZNSt3__116allocator_traitsINS_9allocatorIjEEE8max_sizeB8ne180100IS2_vEEmRKS2_, symObjAddr: 0xA38, symBinAddr: 0x10000B4C4, symSize: 0x24 }
  - { offset: 0x2FE9D, size: 0x8, addend: 0x0, symName: __ZNKSt3__19allocatorIjE8max_sizeB8ne180100Ev, symObjAddr: 0xAF8, symBinAddr: 0x10000B4E8, symSize: 0x14 }
  - { offset: 0x2FEC1, size: 0x8, addend: 0x0, symName: __ZNSt3__19allocatorIjE8allocateB8ne180100Em, symObjAddr: 0xBF0, symBinAddr: 0x10000B4FC, symSize: 0x58 }
  - { offset: 0x2FEF3, size: 0x8, addend: 0x0, symName: __ZNSt3__117__compressed_pairIPjNS_9allocatorIjEEE6secondB8ne180100Ev, symObjAddr: 0xCC8, symBinAddr: 0x10000B554, symSize: 0x24 }
  - { offset: 0x2FF17, size: 0x8, addend: 0x0, symName: __ZNSt3__122__compressed_pair_elemINS_9allocatorIjEELi1ELb1EE5__getB8ne180100Ev, symObjAddr: 0xCEC, symBinAddr: 0x10000B578, symSize: 0x14 }
  - { offset: 0x2FF3B, size: 0x8, addend: 0x0, symName: __ZNSt3__117__compressed_pairIPjNS_9allocatorIjEEE5firstB8ne180100Ev, symObjAddr: 0xD00, symBinAddr: 0x10000B58C, symSize: 0x24 }
  - { offset: 0x2FF5F, size: 0x8, addend: 0x0, symName: __ZNSt3__122__compressed_pair_elemIPjLi0ELb0EE5__getB8ne180100Ev, symObjAddr: 0xD24, symBinAddr: 0x10000B5B0, symSize: 0x14 }
  - { offset: 0x2FF9C, size: 0x8, addend: 0x0, symName: __ZNSt3__16vectorIjNS_9allocatorIjEEE21_ConstructTransactionC1B8ne180100ERS3_m, symObjAddr: 0xD38, symBinAddr: 0x10000B5C4, symSize: 0x3C }
  - { offset: 0x2FFE2, size: 0x8, addend: 0x0, symName: __ZNSt3__16vectorIjNS_9allocatorIjEEE21_ConstructTransactionD1B8ne180100Ev, symObjAddr: 0xDF4, symBinAddr: 0x10000B680, symSize: 0x2C }
  - { offset: 0x3000A, size: 0x8, addend: 0x0, symName: __ZNSt3__16vectorIjNS_9allocatorIjEEE21_ConstructTransactionC2B8ne180100ERS3_m, symObjAddr: 0xE20, symBinAddr: 0x10000B6AC, symSize: 0x44 }
  - { offset: 0x3006E, size: 0x8, addend: 0x0, symName: __ZNSt3__14pairIPjS1_EC1B8ne180100IS1_S1_Li0EEEOT_OT0_, symObjAddr: 0xF94, symBinAddr: 0x10000B820, symSize: 0x3C }
  - { offset: 0x300CA, size: 0x8, addend: 0x0, symName: __ZNSt3__14pairIPjS1_EC2B8ne180100IS1_S1_Li0EEEOT_OT0_, symObjAddr: 0xFD0, symBinAddr: 0x10000B85C, symSize: 0x34 }
  - { offset: 0x30130, size: 0x8, addend: 0x0, symName: __ZNKSt3__114__copy_trivialclB8ne180100IjjLi0EEENS_4pairIPT_PT0_EES4_S4_S6_, symObjAddr: 0x1180, symBinAddr: 0x10000BA0C, symSize: 0x48 }
  - { offset: 0x30196, size: 0x8, addend: 0x0, symName: __ZNSt3__14pairIPjS1_EC1B8ne180100IRS1_S1_Li0EEEOT_OT0_, symObjAddr: 0x1310, symBinAddr: 0x10000BB9C, symSize: 0x3C }
  - { offset: 0x301F2, size: 0x8, addend: 0x0, symName: __ZNSt3__14pairIPjS1_EC2B8ne180100IRS1_S1_Li0EEEOT_OT0_, symObjAddr: 0x134C, symBinAddr: 0x10000BBD8, symSize: 0x34 }
  - { offset: 0x3024E, size: 0x8, addend: 0x0, symName: __ZNSt3__118__unwrap_iter_implIPjLb1EE8__unwrapB8ne180100ES1_, symObjAddr: 0x1380, symBinAddr: 0x10000BC0C, symSize: 0x24 }
  - { offset: 0x30270, size: 0x8, addend: 0x0, symName: __ZNSt3__118__unwrap_iter_implIPjLb1EE8__rewrapB8ne180100ES1_S1_, symObjAddr: 0x13B8, symBinAddr: 0x10000BC44, symSize: 0x50 }
  - { offset: 0x302A0, size: 0x8, addend: 0x0, symName: __ZNSt3__16vectorIjNS_9allocatorIjEEE21_ConstructTransactionD2B8ne180100Ev, symObjAddr: 0x1408, symBinAddr: 0x10000BC94, symSize: 0x20 }
  - { offset: 0x302C8, size: 0x8, addend: 0x0, symName: __ZNSt3__128__exception_guard_exceptionsINS_6vectorIjNS_9allocatorIjEEE16__destroy_vectorEED2B8ne180100Ev, symObjAddr: 0x1428, symBinAddr: 0x10000BCB4, symSize: 0x50 }
  - { offset: 0x302F0, size: 0x8, addend: 0x0, symName: __ZNSt3__16vectorIjNS_9allocatorIjEEE16__destroy_vectorclB8ne180100Ev, symObjAddr: 0x1478, symBinAddr: 0x10000BD04, symSize: 0x90 }
  - { offset: 0x30314, size: 0x8, addend: 0x0, symName: __ZNSt3__16vectorIjNS_9allocatorIjEEE7__clearB8ne180100Ev, symObjAddr: 0x1508, symBinAddr: 0x10000BD94, symSize: 0x28 }
  - { offset: 0x30338, size: 0x8, addend: 0x0, symName: __ZNKSt3__16vectorIjNS_9allocatorIjEEE17__annotate_deleteB8ne180100Ev, symObjAddr: 0x1530, symBinAddr: 0x10000BDBC, symSize: 0x10 }
  - { offset: 0x3035C, size: 0x8, addend: 0x0, symName: __ZNSt3__116allocator_traitsINS_9allocatorIjEEE10deallocateB8ne180100ERS2_Pjm, symObjAddr: 0x1540, symBinAddr: 0x10000BDCC, symSize: 0x34 }
  - { offset: 0x3039D, size: 0x8, addend: 0x0, symName: __ZNKSt3__16vectorIjNS_9allocatorIjEEE8capacityB8ne180100Ev, symObjAddr: 0x1574, symBinAddr: 0x10000BE00, symSize: 0x40 }
  - { offset: 0x303C1, size: 0x8, addend: 0x0, symName: __ZNSt3__16vectorIjNS_9allocatorIjEEE22__base_destruct_at_endB8ne180100EPj, symObjAddr: 0x15B4, symBinAddr: 0x10000BE40, symSize: 0x8C }
  - { offset: 0x30403, size: 0x8, addend: 0x0, symName: __ZNSt3__116allocator_traitsINS_9allocatorIjEEE7destroyB8ne180100IjvEEvRS2_PT_, symObjAddr: 0x1640, symBinAddr: 0x10000BECC, symSize: 0x2C }
  - { offset: 0x30440, size: 0x8, addend: 0x0, symName: __ZNSt3__19allocatorIjE7destroyB8ne180100EPj, symObjAddr: 0x166C, symBinAddr: 0x10000BEF8, symSize: 0x14 }
  - { offset: 0x30472, size: 0x8, addend: 0x0, symName: __ZNSt3__19allocatorIjE10deallocateB8ne180100EPjm, symObjAddr: 0x1680, symBinAddr: 0x10000BF0C, symSize: 0x40 }
  - { offset: 0x304B2, size: 0x8, addend: 0x0, symName: __ZNKSt3__16vectorIjNS_9allocatorIjEEE9__end_capB8ne180100Ev, symObjAddr: 0x173C, symBinAddr: 0x10000BF4C, symSize: 0x28 }
  - { offset: 0x304D6, size: 0x8, addend: 0x0, symName: __ZNKSt3__117__compressed_pairIPjNS_9allocatorIjEEE5firstB8ne180100Ev, symObjAddr: 0x1764, symBinAddr: 0x10000BF74, symSize: 0x24 }
  - { offset: 0x304FA, size: 0x8, addend: 0x0, symName: __ZNKSt3__122__compressed_pair_elemIPjLi0ELb0EE5__getB8ne180100Ev, symObjAddr: 0x1788, symBinAddr: 0x10000BF98, symSize: 0x14 }
  - { offset: 0x3051E, size: 0x8, addend: 0x0, symName: __ZNSt3__16vectorIjNS_9allocatorIjEEE22__construct_one_at_endB8ne180100IJRKjEEEvDpOT_, symObjAddr: 0x179C, symBinAddr: 0x10000BFAC, symSize: 0x90 }
  - { offset: 0x3056B, size: 0x8, addend: 0x0, symName: __ZNSt3__16vectorIjNS_9allocatorIjEEE21__push_back_slow_pathIRKjEEPjOT_, symObjAddr: 0x182C, symBinAddr: 0x10000C03C, symSize: 0xE8 }
  - { offset: 0x305C7, size: 0x8, addend: 0x0, symName: __ZNSt3__116allocator_traitsINS_9allocatorIjEEE9constructB8ne180100IjJRKjEvEEvRS2_PT_DpOT0_, symObjAddr: 0x1914, symBinAddr: 0x10000C124, symSize: 0x34 }
  - { offset: 0x3061E, size: 0x8, addend: 0x0, symName: __ZNSt3__19allocatorIjE9constructB8ne180100IjJRKjEEEvPT_DpOT0_, symObjAddr: 0x1948, symBinAddr: 0x10000C158, symSize: 0x28 }
  - { offset: 0x30672, size: 0x8, addend: 0x0, symName: __ZNKSt3__16vectorIjNS_9allocatorIjEEE11__recommendB8ne180100Em, symObjAddr: 0x1970, symBinAddr: 0x10000C180, symSize: 0xB4 }
  - { offset: 0x306C6, size: 0x8, addend: 0x0, symName: __ZNSt3__114__split_bufferIjRNS_9allocatorIjEEEC1EmmS3_, symObjAddr: 0x1A24, symBinAddr: 0x10000C234, symSize: 0x44 }
  - { offset: 0x3071B, size: 0x8, addend: 0x0, symName: __ZNSt3__114__split_bufferIjRNS_9allocatorIjEEED1Ev, symObjAddr: 0x1B78, symBinAddr: 0x10000C388, symSize: 0x2C }
  - { offset: 0x30746, size: 0x8, addend: 0x0, symName: __ZNSt3__114__split_bufferIjRNS_9allocatorIjEEEC2EmmS3_, symObjAddr: 0x1C24, symBinAddr: 0x10000C3B4, symSize: 0xD4 }
  - { offset: 0x307B7, size: 0x8, addend: 0x0, symName: __ZNSt3__117__compressed_pairIPjRNS_9allocatorIjEEEC1B8ne180100IDnS4_EEOT_OT0_, symObjAddr: 0x1CF8, symBinAddr: 0x10000C488, symSize: 0x3C }
  - { offset: 0x3080D, size: 0x8, addend: 0x0, symName: __ZNSt3__114__split_bufferIjRNS_9allocatorIjEEE7__allocB8ne180100Ev, symObjAddr: 0x1D34, symBinAddr: 0x10000C4C4, symSize: 0x28 }
  - { offset: 0x30831, size: 0x8, addend: 0x0, symName: __ZNSt3__114__split_bufferIjRNS_9allocatorIjEEE9__end_capB8ne180100Ev, symObjAddr: 0x1D5C, symBinAddr: 0x10000C4EC, symSize: 0x28 }
  - { offset: 0x30855, size: 0x8, addend: 0x0, symName: __ZNSt3__117__compressed_pairIPjRNS_9allocatorIjEEEC2B8ne180100IDnS4_EEOT_OT0_, symObjAddr: 0x1D84, symBinAddr: 0x10000C514, symSize: 0x48 }
  - { offset: 0x308AB, size: 0x8, addend: 0x0, symName: __ZNSt3__122__compressed_pair_elemIRNS_9allocatorIjEELi1ELb0EEC2B8ne180100IS3_vEEOT_, symObjAddr: 0x1DCC, symBinAddr: 0x10000C55C, symSize: 0x20 }
  - { offset: 0x308EC, size: 0x8, addend: 0x0, symName: __ZNSt3__117__compressed_pairIPjRNS_9allocatorIjEEE6secondB8ne180100Ev, symObjAddr: 0x1DEC, symBinAddr: 0x10000C57C, symSize: 0x28 }
  - { offset: 0x30910, size: 0x8, addend: 0x0, symName: __ZNSt3__122__compressed_pair_elemIRNS_9allocatorIjEELi1ELb0EE5__getB8ne180100Ev, symObjAddr: 0x1E14, symBinAddr: 0x10000C5A4, symSize: 0x18 }
  - { offset: 0x30934, size: 0x8, addend: 0x0, symName: __ZNSt3__117__compressed_pairIPjRNS_9allocatorIjEEE5firstB8ne180100Ev, symObjAddr: 0x1E2C, symBinAddr: 0x10000C5BC, symSize: 0x24 }
  - { offset: 0x30958, size: 0x8, addend: 0x0, symName: __ZNSt3__116reverse_iteratorIPjEC1B8ne180100ES1_, symObjAddr: 0x1EC8, symBinAddr: 0x10000C658, symSize: 0x34 }
  - { offset: 0x3098E, size: 0x8, addend: 0x0, symName: __ZNKSt3__116reverse_iteratorIPjE4baseB8ne180100Ev, symObjAddr: 0x1EFC, symBinAddr: 0x10000C68C, symSize: 0x18 }
  - { offset: 0x309D5, size: 0x8, addend: 0x0, symName: __ZNKSt3__111__move_loopINS_17_ClassicAlgPolicyEEclB8ne180100INS_16reverse_iteratorIPjEES6_S6_EENS_4pairIT_T1_EES8_T0_S9_, symObjAddr: 0x2240, symBinAddr: 0x10000C9D0, symSize: 0xA0 }
  - { offset: 0x30A43, size: 0x8, addend: 0x0, symName: __ZNSt3__18_IterOpsINS_17_ClassicAlgPolicyEE11__iter_moveB8ne180100IRNS_16reverse_iteratorIPjEELi0EEEDTclsr3stdE4movedeclsr3stdE7declvalIRT_EEEEOS8_, symObjAddr: 0x2474, symBinAddr: 0x10000CC04, symSize: 0x28 }
  - { offset: 0x30A74, size: 0x8, addend: 0x0, symName: __ZNKSt3__116reverse_iteratorIPjEdeB8ne180100Ev, symObjAddr: 0x249C, symBinAddr: 0x10000CC2C, symSize: 0x28 }
  - { offset: 0x30AA6, size: 0x8, addend: 0x0, symName: __ZNSt3__116reverse_iteratorIPjEppB8ne180100Ev, symObjAddr: 0x24C4, symBinAddr: 0x10000CC54, symSize: 0x20 }
  - { offset: 0x30ACA, size: 0x8, addend: 0x0, symName: __ZNSt3__18_IterOpsINS_17_ClassicAlgPolicyEE25__validate_iter_referenceB8ne180100IRNS_16reverse_iteratorIPjEEEEvv, symObjAddr: 0x24E4, symBinAddr: 0x10000CC74, symSize: 0x4 }
  - { offset: 0x30AE7, size: 0x8, addend: 0x0, symName: __ZNSt3__118__unwrap_iter_implINS_16reverse_iteratorIPjEELb0EE8__unwrapB8ne180100ES3_, symObjAddr: 0x24E8, symBinAddr: 0x10000CC78, symSize: 0x24 }
  - { offset: 0x30B0E, size: 0x8, addend: 0x0, symName: __ZNSt3__14pairINS_16reverse_iteratorIPjEES3_EC1B8ne180100IS3_S3_Li0EEEOT_OT0_, symObjAddr: 0x250C, symBinAddr: 0x10000CC9C, symSize: 0x3C }
  - { offset: 0x30B6A, size: 0x8, addend: 0x0, symName: __ZNSt3__14pairINS_16reverse_iteratorIPjEES3_EC2B8ne180100IS3_S3_Li0EEEOT_OT0_, symObjAddr: 0x2548, symBinAddr: 0x10000CCD8, symSize: 0x34 }
  - { offset: 0x30BC6, size: 0x8, addend: 0x0, symName: __ZNSt3__118__unwrap_iter_implINS_16reverse_iteratorIPjEELb0EE8__rewrapB8ne180100ES3_S3_, symObjAddr: 0x257C, symBinAddr: 0x10000CD0C, symSize: 0x2C }
  - { offset: 0x30BF2, size: 0x8, addend: 0x0, symName: __ZNSt3__116reverse_iteratorIPjEC2B8ne180100ES1_, symObjAddr: 0x25A8, symBinAddr: 0x10000CD38, symSize: 0x28 }
  - { offset: 0x30C29, size: 0x8, addend: 0x0, symName: __ZNSt3__114__split_bufferIjRNS_9allocatorIjEEED2Ev, symObjAddr: 0x25D0, symBinAddr: 0x10000CD60, symSize: 0x8C }
  - { offset: 0x30C53, size: 0x8, addend: 0x0, symName: __ZNSt3__114__split_bufferIjRNS_9allocatorIjEEE5clearB8ne180100Ev, symObjAddr: 0x265C, symBinAddr: 0x10000CDEC, symSize: 0x28 }
  - { offset: 0x30C77, size: 0x8, addend: 0x0, symName: __ZNKSt3__114__split_bufferIjRNS_9allocatorIjEEE8capacityB8ne180100Ev, symObjAddr: 0x2684, symBinAddr: 0x10000CE14, symSize: 0x40 }
  - { offset: 0x30C9B, size: 0x8, addend: 0x0, symName: __ZNSt3__114__split_bufferIjRNS_9allocatorIjEEE17__destruct_at_endB8ne180100EPj, symObjAddr: 0x26C4, symBinAddr: 0x10000CE54, symSize: 0x2C }
  - { offset: 0x30CCD, size: 0x8, addend: 0x0, symName: __ZNSt3__114__split_bufferIjRNS_9allocatorIjEEE17__destruct_at_endB8ne180100EPjNS_17integral_constantIbLb0EEE, symObjAddr: 0x26F0, symBinAddr: 0x10000CE80, symSize: 0x80 }
  - { offset: 0x30D0B, size: 0x8, addend: 0x0, symName: __ZNKSt3__114__split_bufferIjRNS_9allocatorIjEEE9__end_capB8ne180100Ev, symObjAddr: 0x2770, symBinAddr: 0x10000CF00, symSize: 0x28 }
  - { offset: 0x30D2F, size: 0x8, addend: 0x0, symName: __ZNKSt3__117__compressed_pairIPjRNS_9allocatorIjEEE5firstB8ne180100Ev, symObjAddr: 0x2798, symBinAddr: 0x10000CF28, symSize: 0x24 }
  - { offset: 0x37CE6, size: 0x8, addend: 0x0, symName: __ZNSt3__122__make_exception_guardB8ne180100INS_6vectorI6BucketNS_9allocatorIS2_EEE16__destroy_vectorEEENS_28__exception_guard_exceptionsIT_EES8_, symObjAddr: 0xD30, symBinAddr: 0x10000D7F0, symSize: 0x40 }
  - { offset: 0x37D1B, size: 0x8, addend: 0x0, symName: __ZNSt3__119__allocate_at_leastB8ne180100INS_9allocatorI6BucketEEEENS_19__allocation_resultINS_16allocator_traitsIT_E7pointerEEERS6_m, symObjAddr: 0x1124, symBinAddr: 0x10000DBE4, symSize: 0x40 }
  - { offset: 0x37D5E, size: 0x8, addend: 0x0, symName: __ZNSt3__112__to_addressB8ne180100I6BucketEEPT_S3_, symObjAddr: 0x15C4, symBinAddr: 0x10000DE58, symSize: 0x14 }
  - { offset: 0x390E9, size: 0x8, addend: 0x0, symName: __Z9partitionP4DiskP3MemNSt3__14pairIjjEES5_, symObjAddr: 0x0, symBinAddr: 0x10000CF4C, symSize: 0x5AC }
  - { offset: 0x3928D, size: 0x8, addend: 0x0, symName: __ZNSt3__16vectorI6BucketNS_9allocatorIS1_EEEC1EmRKS1_, symObjAddr: 0x5AC, symBinAddr: 0x10000D4F8, symSize: 0x3C }
  - { offset: 0x392D5, size: 0x8, addend: 0x0, symName: __ZN6BucketD1Ev, symObjAddr: 0x5E8, symBinAddr: 0x10000D534, symSize: 0x2C }
  - { offset: 0x392FF, size: 0x8, addend: 0x0, symName: __ZNSt3__16vectorI6BucketNS_9allocatorIS1_EEEixB8ne180100Em, symObjAddr: 0x614, symBinAddr: 0x10000D560, symSize: 0x24 }
  - { offset: 0x39334, size: 0x8, addend: 0x0, symName: __ZNSt3__16vectorI6BucketNS_9allocatorIS1_EEED1B8ne180100Ev, symObjAddr: 0x664, symBinAddr: 0x10000D584, symSize: 0x2C }
  - { offset: 0x3935C, size: 0x8, addend: 0x0, symName: __Z5probeP4DiskP3MemRNSt3__16vectorI6BucketNS3_9allocatorIS5_EEEE, symObjAddr: 0x690, symBinAddr: 0x10000D5B0, symSize: 0x7C }
  - { offset: 0x393B3, size: 0x8, addend: 0x0, symName: __ZNSt3__16vectorIjNS_9allocatorIjEEED1B8ne180100Ev, symObjAddr: 0x738, symBinAddr: 0x10000D62C, symSize: 0x2C }
  - { offset: 0x393DB, size: 0x8, addend: 0x0, symName: __ZN6BucketD2Ev, symObjAddr: 0x764, symBinAddr: 0x10000D658, symSize: 0x3C }
  - { offset: 0x39405, size: 0x8, addend: 0x0, symName: __ZNSt3__16vectorIjNS_9allocatorIjEEED2B8ne180100Ev, symObjAddr: 0x7D8, symBinAddr: 0x10000D694, symSize: 0x44 }
  - { offset: 0x3942E, size: 0x8, addend: 0x0, symName: __ZNSt3__16vectorI6BucketNS_9allocatorIS1_EEEC2EmRKS1_, symObjAddr: 0xC18, symBinAddr: 0x10000D6D8, symSize: 0xDC }
  - { offset: 0x3949A, size: 0x8, addend: 0x0, symName: __ZNSt3__117__compressed_pairIP6BucketNS_9allocatorIS1_EEEC1B8ne180100IDnNS_18__default_init_tagEEEOT_OT0_, symObjAddr: 0xCF4, symBinAddr: 0x10000D7B4, symSize: 0x3C }
  - { offset: 0x394F0, size: 0x8, addend: 0x0, symName: __ZNSt3__16vectorI6BucketNS_9allocatorIS1_EEE16__destroy_vectorC1B8ne180100ERS4_, symObjAddr: 0xD70, symBinAddr: 0x10000D830, symSize: 0x34 }
  - { offset: 0x39527, size: 0x8, addend: 0x0, symName: __ZNSt3__16vectorI6BucketNS_9allocatorIS1_EEE11__vallocateB8ne180100Em, symObjAddr: 0xDA4, symBinAddr: 0x10000D864, symSize: 0xAC }
  - { offset: 0x39569, size: 0x8, addend: 0x0, symName: __ZNSt3__16vectorI6BucketNS_9allocatorIS1_EEE18__construct_at_endEmRKS1_, symObjAddr: 0xE50, symBinAddr: 0x10000D910, symSize: 0xD0 }
  - { offset: 0x395E8, size: 0x8, addend: 0x0, symName: __ZNSt3__128__exception_guard_exceptionsINS_6vectorI6BucketNS_9allocatorIS2_EEE16__destroy_vectorEE10__completeB8ne180100Ev, symObjAddr: 0xF20, symBinAddr: 0x10000D9E0, symSize: 0x1C }
  - { offset: 0x3960C, size: 0x8, addend: 0x0, symName: __ZNSt3__128__exception_guard_exceptionsINS_6vectorI6BucketNS_9allocatorIS2_EEE16__destroy_vectorEED1B8ne180100Ev, symObjAddr: 0xF3C, symBinAddr: 0x10000D9FC, symSize: 0x2C }
  - { offset: 0x39634, size: 0x8, addend: 0x0, symName: __ZNSt3__117__compressed_pairIP6BucketNS_9allocatorIS1_EEEC2B8ne180100IDnNS_18__default_init_tagEEEOT_OT0_, symObjAddr: 0xF68, symBinAddr: 0x10000DA28, symSize: 0x40 }
  - { offset: 0x3968A, size: 0x8, addend: 0x0, symName: __ZNSt3__122__compressed_pair_elemIP6BucketLi0ELb0EEC2B8ne180100IDnvEEOT_, symObjAddr: 0xFA8, symBinAddr: 0x10000DA68, symSize: 0x1C }
  - { offset: 0x396CB, size: 0x8, addend: 0x0, symName: __ZNSt3__122__compressed_pair_elemINS_9allocatorI6BucketEELi1ELb1EEC2B8ne180100ENS_18__default_init_tagE, symObjAddr: 0xFC4, symBinAddr: 0x10000DA84, symSize: 0x2C }
  - { offset: 0x396FD, size: 0x8, addend: 0x0, symName: __ZNSt3__19allocatorI6BucketEC2B8ne180100Ev, symObjAddr: 0xFF0, symBinAddr: 0x10000DAB0, symSize: 0x2C }
  - { offset: 0x39725, size: 0x8, addend: 0x0, symName: __ZNSt3__116__non_trivial_ifILb1ENS_9allocatorI6BucketEEEC2B8ne180100Ev, symObjAddr: 0x101C, symBinAddr: 0x10000DADC, symSize: 0x14 }
  - { offset: 0x3974D, size: 0x8, addend: 0x0, symName: __ZNSt3__128__exception_guard_exceptionsINS_6vectorI6BucketNS_9allocatorIS2_EEE16__destroy_vectorEEC1B8ne180100ES6_, symObjAddr: 0x1030, symBinAddr: 0x10000DAF0, symSize: 0x34 }
  - { offset: 0x39783, size: 0x8, addend: 0x0, symName: __ZNSt3__128__exception_guard_exceptionsINS_6vectorI6BucketNS_9allocatorIS2_EEE16__destroy_vectorEEC2B8ne180100ES6_, symObjAddr: 0x1064, symBinAddr: 0x10000DB24, symSize: 0x24 }
  - { offset: 0x397B9, size: 0x8, addend: 0x0, symName: __ZNSt3__16vectorI6BucketNS_9allocatorIS1_EEE16__destroy_vectorC2B8ne180100ERS4_, symObjAddr: 0x1088, symBinAddr: 0x10000DB48, symSize: 0x20 }
  - { offset: 0x397F0, size: 0x8, addend: 0x0, symName: __ZNKSt3__16vectorI6BucketNS_9allocatorIS1_EEE8max_sizeEv, symObjAddr: 0x10A8, symBinAddr: 0x10000DB68, symSize: 0x60 }
  - { offset: 0x39816, size: 0x8, addend: 0x0, symName: __ZNKSt3__16vectorI6BucketNS_9allocatorIS1_EEE20__throw_length_errorB8ne180100Ev, symObjAddr: 0x1108, symBinAddr: 0x10000DBC8, symSize: 0x1C }
  - { offset: 0x3983A, size: 0x8, addend: 0x0, symName: __ZNSt3__16vectorI6BucketNS_9allocatorIS1_EEE7__allocB8ne180100Ev, symObjAddr: 0x1164, symBinAddr: 0x10000DC24, symSize: 0x28 }
  - { offset: 0x3985E, size: 0x8, addend: 0x0, symName: __ZNSt3__16vectorI6BucketNS_9allocatorIS1_EEE9__end_capB8ne180100Ev, symObjAddr: 0x118C, symBinAddr: 0x10000DC4C, symSize: 0x28 }
  - { offset: 0x39882, size: 0x8, addend: 0x0, symName: __ZNKSt3__16vectorI6BucketNS_9allocatorIS1_EEE14__annotate_newB8ne180100Em, symObjAddr: 0x11B4, symBinAddr: 0x10000DC74, symSize: 0x14 }
  - { offset: 0x398BF, size: 0x8, addend: 0x0, symName: __ZNSt3__116allocator_traitsINS_9allocatorI6BucketEEE8max_sizeB8ne180100IS3_vEEmRKS3_, symObjAddr: 0x11F4, symBinAddr: 0x10000DC88, symSize: 0x24 }
  - { offset: 0x398ED, size: 0x8, addend: 0x0, symName: __ZNKSt3__16vectorI6BucketNS_9allocatorIS1_EEE7__allocB8ne180100Ev, symObjAddr: 0x1218, symBinAddr: 0x10000DCAC, symSize: 0x28 }
  - { offset: 0x39911, size: 0x8, addend: 0x0, symName: __ZNKSt3__19allocatorI6BucketE8max_sizeB8ne180100Ev, symObjAddr: 0x12DC, symBinAddr: 0x10000DCD4, symSize: 0x14 }
  - { offset: 0x39935, size: 0x8, addend: 0x0, symName: __ZNKSt3__117__compressed_pairIP6BucketNS_9allocatorIS1_EEE6secondB8ne180100Ev, symObjAddr: 0x12F0, symBinAddr: 0x10000DCE8, symSize: 0x24 }
  - { offset: 0x39959, size: 0x8, addend: 0x0, symName: __ZNKSt3__122__compressed_pair_elemINS_9allocatorI6BucketEELi1ELb1EE5__getB8ne180100Ev, symObjAddr: 0x1314, symBinAddr: 0x10000DD0C, symSize: 0x14 }
  - { offset: 0x3997D, size: 0x8, addend: 0x0, symName: __ZNSt3__19allocatorI6BucketE8allocateB8ne180100Em, symObjAddr: 0x140C, symBinAddr: 0x10000DD20, symSize: 0x58 }
  - { offset: 0x399AF, size: 0x8, addend: 0x0, symName: __ZNSt3__117__compressed_pairIP6BucketNS_9allocatorIS1_EEE6secondB8ne180100Ev, symObjAddr: 0x14E4, symBinAddr: 0x10000DD78, symSize: 0x24 }
  - { offset: 0x399D3, size: 0x8, addend: 0x0, symName: __ZNSt3__122__compressed_pair_elemINS_9allocatorI6BucketEELi1ELb1EE5__getB8ne180100Ev, symObjAddr: 0x1508, symBinAddr: 0x10000DD9C, symSize: 0x14 }
  - { offset: 0x399F7, size: 0x8, addend: 0x0, symName: __ZNSt3__117__compressed_pairIP6BucketNS_9allocatorIS1_EEE5firstB8ne180100Ev, symObjAddr: 0x151C, symBinAddr: 0x10000DDB0, symSize: 0x24 }
  - { offset: 0x39A1B, size: 0x8, addend: 0x0, symName: __ZNSt3__122__compressed_pair_elemIP6BucketLi0ELb0EE5__getB8ne180100Ev, symObjAddr: 0x1540, symBinAddr: 0x10000DDD4, symSize: 0x14 }
  - { offset: 0x39A58, size: 0x8, addend: 0x0, symName: __ZNSt3__16vectorI6BucketNS_9allocatorIS1_EEE21_ConstructTransactionC1B8ne180100ERS4_m, symObjAddr: 0x1554, symBinAddr: 0x10000DDE8, symSize: 0x3C }
  - { offset: 0x39A9E, size: 0x8, addend: 0x0, symName: __ZNSt3__116allocator_traitsINS_9allocatorI6BucketEEE9constructB8ne180100IS2_JRKS2_EvEEvRS3_PT_DpOT0_, symObjAddr: 0x1590, symBinAddr: 0x10000DE24, symSize: 0x34 }
  - { offset: 0x39AF5, size: 0x8, addend: 0x0, symName: __ZNSt3__16vectorI6BucketNS_9allocatorIS1_EEE21_ConstructTransactionD1B8ne180100Ev, symObjAddr: 0x15D8, symBinAddr: 0x10000DE6C, symSize: 0x2C }
  - { offset: 0x39B1D, size: 0x8, addend: 0x0, symName: __ZNSt3__16vectorI6BucketNS_9allocatorIS1_EEE21_ConstructTransactionC2B8ne180100ERS4_m, symObjAddr: 0x1604, symBinAddr: 0x10000DE98, symSize: 0x44 }
  - { offset: 0x39B63, size: 0x8, addend: 0x0, symName: __ZNSt3__19allocatorI6BucketE9constructB8ne180100IS1_JRKS1_EEEvPT_DpOT0_, symObjAddr: 0x1648, symBinAddr: 0x10000DEDC, symSize: 0x30 }
  - { offset: 0x39BB7, size: 0x8, addend: 0x0, symName: __ZN6BucketC1ERKS_, symObjAddr: 0x1678, symBinAddr: 0x10000DF0C, symSize: 0x34 }
  - { offset: 0x39BEA, size: 0x8, addend: 0x0, symName: __ZN6BucketC2ERKS_, symObjAddr: 0x16AC, symBinAddr: 0x10000DF40, symSize: 0x90 }
  - { offset: 0x39C36, size: 0x8, addend: 0x0, symName: __ZNSt3__16vectorI6BucketNS_9allocatorIS1_EEE21_ConstructTransactionD2B8ne180100Ev, symObjAddr: 0x2504, symBinAddr: 0x10000DFD0, symSize: 0x20 }
  - { offset: 0x39C5E, size: 0x8, addend: 0x0, symName: __ZNSt3__128__exception_guard_exceptionsINS_6vectorI6BucketNS_9allocatorIS2_EEE16__destroy_vectorEED2B8ne180100Ev, symObjAddr: 0x2524, symBinAddr: 0x10000DFF0, symSize: 0x50 }
  - { offset: 0x39C86, size: 0x8, addend: 0x0, symName: __ZNSt3__16vectorI6BucketNS_9allocatorIS1_EEE16__destroy_vectorclB8ne180100Ev, symObjAddr: 0x2574, symBinAddr: 0x10000E040, symSize: 0x90 }
  - { offset: 0x39CAA, size: 0x8, addend: 0x0, symName: __ZNSt3__16vectorI6BucketNS_9allocatorIS1_EEE7__clearB8ne180100Ev, symObjAddr: 0x2604, symBinAddr: 0x10000E0D0, symSize: 0x28 }
  - { offset: 0x39CCE, size: 0x8, addend: 0x0, symName: __ZNKSt3__16vectorI6BucketNS_9allocatorIS1_EEE17__annotate_deleteB8ne180100Ev, symObjAddr: 0x262C, symBinAddr: 0x10000E0F8, symSize: 0x10 }
  - { offset: 0x39CF2, size: 0x8, addend: 0x0, symName: __ZNSt3__116allocator_traitsINS_9allocatorI6BucketEEE10deallocateB8ne180100ERS3_PS2_m, symObjAddr: 0x263C, symBinAddr: 0x10000E108, symSize: 0x34 }
  - { offset: 0x39D33, size: 0x8, addend: 0x0, symName: __ZNKSt3__16vectorI6BucketNS_9allocatorIS1_EEE8capacityB8ne180100Ev, symObjAddr: 0x2670, symBinAddr: 0x10000E13C, symSize: 0x40 }
  - { offset: 0x39D57, size: 0x8, addend: 0x0, symName: __ZNSt3__16vectorI6BucketNS_9allocatorIS1_EEE22__base_destruct_at_endB8ne180100EPS1_, symObjAddr: 0x26B0, symBinAddr: 0x10000E17C, symSize: 0x8C }
  - { offset: 0x39D99, size: 0x8, addend: 0x0, symName: __ZNSt3__116allocator_traitsINS_9allocatorI6BucketEEE7destroyB8ne180100IS2_vEEvRS3_PT_, symObjAddr: 0x273C, symBinAddr: 0x10000E208, symSize: 0x2C }
  - { offset: 0x39DD6, size: 0x8, addend: 0x0, symName: __ZNSt3__19allocatorI6BucketE7destroyB8ne180100EPS1_, symObjAddr: 0x2768, symBinAddr: 0x10000E234, symSize: 0x28 }
  - { offset: 0x39E08, size: 0x8, addend: 0x0, symName: __ZNSt3__19allocatorI6BucketE10deallocateB8ne180100EPS1_m, symObjAddr: 0x2790, symBinAddr: 0x10000E25C, symSize: 0x40 }
  - { offset: 0x39E48, size: 0x8, addend: 0x0, symName: __ZNKSt3__16vectorI6BucketNS_9allocatorIS1_EEE9__end_capB8ne180100Ev, symObjAddr: 0x27D0, symBinAddr: 0x10000E29C, symSize: 0x28 }
  - { offset: 0x39E6C, size: 0x8, addend: 0x0, symName: __ZNKSt3__117__compressed_pairIP6BucketNS_9allocatorIS1_EEE5firstB8ne180100Ev, symObjAddr: 0x27F8, symBinAddr: 0x10000E2C4, symSize: 0x24 }
  - { offset: 0x39E90, size: 0x8, addend: 0x0, symName: __ZNKSt3__122__compressed_pair_elemIP6BucketLi0ELb0EE5__getB8ne180100Ev, symObjAddr: 0x281C, symBinAddr: 0x10000E2E8, symSize: 0x14 }
  - { offset: 0x39EB4, size: 0x8, addend: 0x0, symName: __ZNSt3__16vectorI6BucketNS_9allocatorIS1_EEED2B8ne180100Ev, symObjAddr: 0x2830, symBinAddr: 0x10000E2FC, symSize: 0x40 }
  - { offset: 0x41C23, size: 0x8, addend: 0x0, symName: __Z5printRNSt3__16vectorIjNS_9allocatorIjEEEEP4Disk, symObjAddr: 0x0, symBinAddr: 0x10000E33C, symSize: 0x130 }
  - { offset: 0x41C91, size: 0x8, addend: 0x0, symName: __ZNSt3__16vectorIjNS_9allocatorIjEEEixB8ne180100Em, symObjAddr: 0x224, symBinAddr: 0x10000E46C, symSize: 0x24 }
  - { offset: 0x41CC7, size: 0x8, addend: 0x0, symName: _main, symObjAddr: 0x248, symBinAddr: 0x10000E490, symSize: 0x1BC }
...
